ccollections
defaultdict
p0
(c__builtin__
list
p1
tp2
Rp3
Vaccount_credits.show
p4
(lp5
(dp6
Vurl
p7
V/v1/marketplaces/:marketplace_id/accounts/:account_id/credits/:credit_id
p8
sVmethods
p9
c__builtin__
set
p10
((lp11
S'HEAD'
p12
aVGET
p13
atp14
Rp15
sasVbank_account_transactions.index
p16
(lp17
(dp18
g7
V/v1/marketplaces/:marketplace_id/bank_accounts/:bank_account_id/transactions
p19
sg9
g10
((lp20
S'HEAD'
p21
ag13
atp22
Rp23
sa(dp24
g7
V/v1/bank_accounts/:bank_account_id/transactions
p25
sg9
g10
((lp26
S'HEAD'
p27
ag13
atp28
Rp29
sasVaccounts.show
p30
(lp31
(dp32
S'url'
p33
V/v1/marketplaces/:marketplace_id/accounts/:account_id
p34
sS'methods'
p35
g10
((lp36
S'HEAD'
p37
aVGET
p38
atp39
Rp40
sasVbank_accounts.update
p41
(lp42
(dp43
g7
V/v1/bank_accounts/:bank_account_id
p44
sg9
g10
((lp45
VPUT
p46
atp47
Rp48
sasVinvoice_collection.bank_account_debits
p49
(lp50
(dp51
g7
V/v1/invoices/:invoice_id/bank_account_debits
p52
sg9
g10
((lp53
VHEAD
p54
aVGET
p55
atp56
Rp57
sasVmarketplace_cards.show
p58
(lp59
(dp60
S'url'
p61
V/v1/marketplaces/:marketplace_id/cards/:card_id
p62
sS'methods'
p63
g10
((lp64
S'HEAD'
p65
aVGET
p66
atp67
Rp68
sasVapi_keys.delete
p69
(lp70
(dp71
g7
V/v1/merchants/:merchant_id/api_keys/:api_key_id
p72
sg9
g10
((lp73
VDELETE
p74
atp75
Rp76
sa(dp77
g7
V/v1/api_keys/:api_key_id
p78
sg9
g10
((lp79
g74
atp80
Rp81
sasVhold_events.index
p82
(lp83
(dp84
g7
V/v1/holds/:hold_id/events
p85
sg9
g10
((lp86
S'HEAD'
p87
ag13
atp88
Rp89
sasVmarketplace_credits.update
p90
(lp91
(dp92
g7
V/v1/marketplaces/:marketplace_id/credits/:credit_id
p93
sg9
g10
((lp94
g46
atp95
Rp96
sasVsettlements.show
p97
(lp98
(dp99
g7
V/v1/settlements/:settlement_id
p100
sg9
g10
((lp101
S'HEAD'
p102
ag13
atp103
Rp104
sasVholds.update
p105
(lp106
(dp107
S'url'
p108
V/v1/marketplaces/:marketplace_id/accounts/:account_id/holds/:hold_id
p109
sS'methods'
p110
g10
((lp111
VPUT
p112
atp113
Rp114
sa(dp115
g108
V/v1/marketplaces/:marketplace_id/holds/:hold_id
p116
sg110
g10
((lp117
g112
atp118
Rp119
sa(dp120
g108
V/v1/marketplaces/:marketplace_id/accounts/:account_id/holds/:hold_id
p121
sg110
g114
sa(dp122
g108
V/v1/marketplaces/:marketplace_id/holds/:hold_id
p123
sg110
g119
sasVholds.create
p124
(lp125
(dp126
g108
V/v1/marketplaces/:marketplace_id/accounts/:account_id/holds
p127
sg110
g10
((lp128
VPOST
p129
atp130
Rp131
sa(dp132
g108
V/v1/marketplaces/:marketplace_id/holds
p133
sg110
g10
((lp134
g129
atp135
Rp136
sasVbank_account_authentications_2.show
p137
(lp138
(dp139
g7
V/v1/bank_accounts/:bank_account_id/authentications/:authentication_id
p140
sg9
g10
((lp141
S'HEAD'
p142
ag13
atp143
Rp144
sasVaccount_cards.index
p145
(lp146
(dp147
g61
V/v1/marketplaces/:marketplace_id/accounts/:account_id/cards
p148
sg63
g10
((lp149
S'HEAD'
p150
ag66
atp151
Rp152
sasVaccount_cards.update
p153
(lp154
(dp155
g7
V/v1/marketplaces/:marketplace_id/accounts/:account_id/cards/:card_id
p156
sg9
g10
((lp157
g46
atp158
Rp159
sasVmarketplaces.update
p160
(lp161
(dp162
g7
V/v1/marketplaces/:marketplace_id
p163
sg9
g10
((lp164
g46
atp165
Rp166
sasVholds.show
p167
(lp168
(dp169
g108
V/v1/marketplaces/:marketplace_id/accounts/:account_id/holds/:hold_id
p170
sg110
g10
((lp171
S'HEAD'
p172
aVGET
p173
atp174
Rp175
sa(dp176
g108
V/v1/marketplaces/:marketplace_id/holds/:hold_id
p177
sg110
g10
((lp178
S'HEAD'
p179
ag173
atp180
Rp181
sasVmarketplace_invoice_collection.bank_account_debits
p182
(lp183
(dp184
g7
V/v1/marketplace/:marketplace_id/invoices/:invoice_id/bank_account_debits
p185
sg9
g10
((lp186
VHEAD
p187
aVGET
p188
atp189
Rp190
sasVbank_account_authentications.update_current
p191
(lp192
(dp193
g7
V/v1/bank_accounts/:bank_account_id/verification
p194
sg9
g10
((lp195
VPUT
p196
atp197
Rp198
sasVaccount_credits.create
p199
(lp200
(dp201
S'url'
p202
V/v1/marketplaces/:marketplace_id/accounts/:account_id/credits
p203
sS'methods'
p204
g10
((lp205
VPOST
p206
atp207
Rp208
sasVmarketplace_invoice_collection.holds
p209
(lp210
(dp211
g7
V/v1/marketplace/:marketplace_id/invoices/:invoice_id/holds
p212
sg9
g10
((lp213
g187
ag188
atp214
Rp215
sasVmarketplace_statistics.show
p216
(lp217
(dp218
g7
V/v1/marketplaces/:marketplace_id/statistics/:query_id
p219
sg9
g10
((lp220
S'HEAD'
p221
ag13
atp222
Rp223
sa(dp224
g7
V/v1/marketplaces/statistics/:query_id
p225
sg9
g10
((lp226
S'HEAD'
p227
ag13
atp228
Rp229
sasVversions.index
p230
(lp231
(dp232
g7
V/
p233
sg9
g10
((lp234
S'HEAD'
p235
aVGET
p236
atp237
Rp238
sasVmarketplace_callbacks.create
p239
(lp240
(dp241
g7
V/v1/marketplaces/:marketplace_id/callbacks
p242
sg9
g10
((lp243
VPOST
p244
atp245
Rp246
sasVbank_account_credits.index
p247
(lp248
(dp249
g202
V/v1/bank_accounts/:bank_account_id/credits
p250
sg204
g10
((lp251
S'HEAD'
p252
aVGET
p253
atp254
Rp255
sasVapi_keys.index
p256
(lp257
(dp258
g7
V/v1/api_keys
p259
sg9
g10
((lp260
S'HEAD'
p261
ag13
atp262
Rp263
sa(dp264
g7
V/v1/merchants/:merchant_id/api_keys
p265
sg9
g10
((lp266
S'HEAD'
p267
ag13
atp268
Rp269
sasVmarketplace_callbacks.delete
p270
(lp271
(dp272
g7
V/v1/marketplaces/:marketplace_id/callbacks/:callback_id
p273
sg9
g10
((lp274
g74
atp275
Rp276
sasVaccount_cards.create
p277
(lp278
(dp279
g7
V/v1/marketplaces/:marketplace_id/accounts/:account_id/cards
p280
sg9
g10
((lp281
g244
atp282
Rp283
sasVdebit_events.index
p284
(lp285
(dp286
g7
V/v1/debits/:debit_id/events
p287
sg9
g10
((lp288
S'HEAD'
p289
ag13
atp290
Rp291
sasVmarketplace_invoices.show
p292
(lp293
(dp294
g7
V/v1/marketplaces/:marketplace_id/invoices/:invoice_id
p295
sg9
g10
((lp296
S'HEAD'
p297
ag13
atp298
Rp299
sasVbank_accounts.create
p300
(lp301
(dp302
S'url'
p303
V/v1/bank_accounts
p304
sS'methods'
p305
g10
((lp306
VPOST
p307
atp308
Rp309
sasVevent_callback_logs.show
p310
(lp311
(dp312
g7
V/v1/events/:event_id/callbacks/:callback_id/logs/:log_id
p313
sg9
g10
((lp314
S'HEAD'
p315
ag13
atp316
Rp317
sasVevent_callback_logs.index
p318
(lp319
(dp320
g7
V/v1/events/:event_id/callbacks/:callback_id/logs
p321
sg9
g10
((lp322
S'HEAD'
p323
ag13
atp324
Rp325
sasVevents.index
p326
(lp327
(dp328
g7
V/v1/events
p329
sg9
g10
((lp330
S'HEAD'
p331
ag13
atp332
Rp333
sasVhealth.show
p334
(lp335
(dp336
g7
V/health
p337
sg9
g10
((lp338
g235
aVGET
p339
atp340
Rp341
sasVbank_account_credits.create
p342
(lp343
(dp344
g202
V/v1/bank_accounts/:bank_account_id/credits
p345
sg204
g10
((lp346
g206
atp347
Rp348
sasVaccount_cards.show
p349
(lp350
(dp351
g7
V/v1/marketplaces/:marketplace_id/accounts/:account_id/cards/:card_id
p352
sg9
g10
((lp353
S'HEAD'
p354
ag13
atp355
Rp356
sasVinvoice_settlements.index
p357
(lp358
(dp359
g7
V/v1/invoices/:invoice_id/settlements
p360
sg9
g10
((lp361
S'HEAD'
p362
ag13
atp363
Rp364
sasVbank_accounts.index
p365
(lp366
(dp367
g303
V/v1/bank_accounts
p368
sg305
g10
((lp369
S'HEAD'
p370
aVGET
p371
atp372
Rp373
sasVmarketplace_invoices.index
p374
(lp375
(dp376
g7
V/v1/marketplaces/:marketplace_id/invoices
p377
sg9
g10
((lp378
S'HEAD'
p379
ag13
atp380
Rp381
sasVmarketplace_credits.show
p382
(lp383
(dp384
g7
V/v1/marketplaces/:marketplace_id/credits/:credit_id
p385
sg9
g10
((lp386
S'HEAD'
p387
ag13
atp388
Rp389
sasVbank_accounts.show
p390
(lp391
(dp392
g303
V/v1/bank_accounts/:bank_account_id
p393
sg305
g10
((lp394
S'HEAD'
p395
ag371
atp396
Rp397
sasVinvoices.delete
p398
(lp399
(dp400
g7
V/v1/invoices/:invoice_id
p401
sg9
g10
((lp402
g74
atp403
Rp404
sasS'static'
p405
(lp406
(dp407
g7
V/static/:filename_id
p408
sg9
g10
((lp409
g235
aS'OPTIONS'
p410
aS'GET'
p411
atp412
Rp413
sasVbank_account_authentications_2.update_current
p414
(lp415
(dp416
g7
V/v1/bank_accounts/:bank_account_id/verification
p417
sg9
g10
((lp418
g196
atp419
Rp420
sasVrefunds.update
p421
(lp422
(dp423
S'url'
p424
V/v1/marketplaces/:marketplace_id/accounts/:account_id/refunds/:refund_id
p425
sS'methods'
p426
g10
((lp427
VPUT
p428
atp429
Rp430
sa(dp431
g424
V/v1/marketplaces/:marketplace_id/refunds/:refund_id
p432
sg426
g10
((lp433
g428
atp434
Rp435
sasVmarketplaces.create
p436
(lp437
(dp438
g7
V/v1/marketplaces
p439
sg9
g10
((lp440
g244
atp441
Rp442
sasVrefunds.index
p443
(lp444
(dp445
g424
V/v1/marketplaces/:marketplace_id/accounts/:account_id/refunds
p446
sg426
g10
((lp447
S'HEAD'
p448
aVGET
p449
atp450
Rp451
sa(dp452
g424
V/v1/marketplaces/:marketplace_id/refunds
p453
sg426
g10
((lp454
S'HEAD'
p455
ag449
atp456
Rp457
sasVholds.index
p458
(lp459
(dp460
g108
V/v1/marketplaces/:marketplace_id/accounts/:account_id/holds
p461
sg110
g10
((lp462
S'HEAD'
p463
ag173
atp464
Rp465
sa(dp466
g108
V/v1/marketplaces/:marketplace_id/holds
p467
sg110
g10
((lp468
S'HEAD'
p469
ag173
atp470
Rp471
sasVinvoice_collection.credits
p472
(lp473
(dp474
g7
V/v1/invoices/:invoice_id/credits
p475
sg9
g10
((lp476
g54
ag55
atp477
Rp478
sasVrefunds.create
p479
(lp480
(dp481
g424
V/v1/marketplaces/:marketplace_id/accounts/:account_id/refunds
p482
sg426
g10
((lp483
VPOST
p484
atp485
Rp486
sa(dp487
g424
V/v1/marketplaces/:marketplace_id/refunds
p488
sg426
g10
((lp489
g484
atp490
Rp491
sasVmerchant_accounts.index
p492
(lp493
(dp494
g7
V/v1/merchants/:merchant_id/accounts
p495
sg9
g10
((lp496
S'HEAD'
p497
ag13
atp498
Rp499
sasVmarketplaces.index
p500
(lp501
(dp502
g7
V/v1/marketplaces
p503
sg9
g10
((lp504
S'HEAD'
p505
ag13
atp506
Rp507
sasVmerchants.show
p508
(lp509
(dp510
g7
V/v1/merchants/:merchant_id
p511
sg9
g10
((lp512
S'HEAD'
p513
ag13
atp514
Rp515
sasVcredits.create
p516
(lp517
(dp518
g202
V/v1/credits
p519
sg204
g10
((lp520
g206
atp521
Rp522
sasVaccounts.index
p523
(lp524
(dp525
g33
V/v1/marketplaces/:marketplace_id/accounts
p526
sg35
g10
((lp527
S'HEAD'
p528
ag38
atp529
Rp530
sasVdebits.index
p531
(lp532
(dp533
S'url'
p534
V/v1/marketplaces/:marketplace_id/accounts/:account_id/debits
p535
sS'methods'
p536
g10
((lp537
S'HEAD'
p538
aVGET
p539
atp540
Rp541
sa(dp542
g534
V/v1/marketplaces/:marketplace_id/holds/:hold_id/debits
p543
sg536
g10
((lp544
S'HEAD'
p545
ag539
atp546
Rp547
sa(dp548
g534
V/v1/marketplaces/:marketplace_id/debits
p549
sg536
g10
((lp550
S'HEAD'
p551
ag539
atp552
Rp553
sasVmarketplace_bank_accounts.show
p554
(lp555
(dp556
g7
V/v1/marketplaces/:marketplace_id/bank_accounts/:bank_account_id
p557
sg9
g10
((lp558
S'HEAD'
p559
ag13
atp560
Rp561
sasVcredits.show
p562
(lp563
(dp564
g202
V/v1/credits/:credit_id
p565
sg204
g10
((lp566
S'HEAD'
p567
ag253
atp568
Rp569
sasVmarketplace_bank_accounts.create
p570
(lp571
(dp572
g7
V/v1/marketplaces/:marketplace_id/bank_accounts
p573
sg9
g10
((lp574
g244
atp575
Rp576
sasVbank_account_credits.show
p577
(lp578
(dp579
g7
V/v1/bank_accounts/:bank_account_id/credits/:credit_id
p580
sg9
g10
((lp581
S'HEAD'
p582
ag13
atp583
Rp584
sasVaccount_bank_accounts.index
p585
(lp586
(dp587
g303
V/v1/marketplaces/:marketplace_id/accounts/:account_id/bank_accounts
p588
sg305
g10
((lp589
S'HEAD'
p590
ag371
atp591
Rp592
sasVdebits.create
p593
(lp594
(dp595
g534
V/v1/marketplaces/:marketplace_id/accounts/:account_id/debits
p596
sg536
g10
((lp597
VPOST
p598
atp599
Rp600
sa(dp601
g534
V/v1/marketplaces/:marketplace_id/holds/:hold_id/debits
p602
sg536
g10
((lp603
g598
atp604
Rp605
sa(dp606
g534
V/v1/marketplaces/:marketplace_id/debits
p607
sg536
g10
((lp608
g598
atp609
Rp610
sasVinvoice_settlements.create
p611
(lp612
(dp613
g7
V/v1/invoices/:invoice_id/settlements
p614
sg9
g10
((lp615
g244
atp616
Rp617
sasVevent_callbacks.index
p618
(lp619
(dp620
g7
V/v1/events/:event_id/callbacks
p621
sg9
g10
((lp622
S'HEAD'
p623
ag13
atp624
Rp625
sasVevents.show
p626
(lp627
(dp628
g7
V/v1/events/:event_id
p629
sg9
g10
((lp630
S'HEAD'
p631
ag13
atp632
Rp633
sasVaccount_bank_accounts.show
p634
(lp635
(dp636
g7
V/v1/marketplaces/:marketplace_id/accounts/:account_id/bank_accounts/:bank_account_id
p637
sg9
g10
((lp638
S'HEAD'
p639
ag13
atp640
Rp641
sasVbank_account_authentications_2.show_current
p642
(lp643
(dp644
g7
V/v1/bank_accounts/:bank_account_id/verification
p645
sg9
g10
((lp646
VHEAD
p647
aVGET
p648
atp649
Rp650
sasVdebit_refunds.show
p651
(lp652
(dp653
g7
V/v1/marketplaces/:marketplace_id/debits/:debit_id/refunds/:refund_id
p654
sg9
g10
((lp655
S'HEAD'
p656
ag13
atp657
Rp658
sasVrefund_events.index
p659
(lp660
(dp661
g7
V/v1/refunds/:refund_id/events
p662
sg9
g10
((lp663
S'HEAD'
p664
ag13
atp665
Rp666
sasVinvoice_collection.lost_debit_chargebacks
p667
(lp668
(dp669
g7
V/v1/invoices/:invoice_id/lost_debit_chargebacks
p670
sg9
g10
((lp671
g54
ag55
atp672
Rp673
sasVmarketplace_cards.create
p674
(lp675
(dp676
g61
V/v1/marketplaces/:marketplace_id/cards
p677
sg63
g10
((lp678
VPOST
p679
atp680
Rp681
sasVapi_keys.update
p682
(lp683
(dp684
g7
V/v1/merchants/:merchant_id/api_keys/:api_key_id
p685
sg9
g10
((lp686
g46
atp687
Rp688
sa(dp689
g7
V/v1/api_keys/:api_key_id
p690
sg9
g10
((lp691
g46
atp692
Rp693
sasVsettlement_events.index
p694
(lp695
(dp696
g7
V/v1/settlements/:settlement_id/events
p697
sg9
g10
((lp698
S'HEAD'
p699
ag13
atp700
Rp701
sasVmarketplace_invoice_collection.debits
p702
(lp703
(dp704
g7
V/v1/marketplace/:marketplace_id/invoices/:invoice_id/debits
p705
sg9
g10
((lp706
g187
ag188
atp707
Rp708
sasVversions.show
p709
(lp710
(dp711
g7
V/v:version_id
p712
sg9
g10
((lp713
g235
ag236
atp714
Rp715
sasVdebit_refunds.index
p716
(lp717
(dp718
g7
V/v1/marketplaces/:marketplace_id/debits/:debit_id/refunds
p719
sg9
g10
((lp720
S'HEAD'
p721
ag13
atp722
Rp723
sasVdebit_refunds.create
p724
(lp725
(dp726
g534
V/v1/marketplaces/:marketplace_id/debits/:debit_id/refunds
p727
sg536
g10
((lp728
g598
atp729
Rp730
sasVmarketplace_invoice_collection.refunds
p731
(lp732
(dp733
g7
V/v1/marketplace/:marketplace_id/invoices/:invoice_id/refunds
p734
sg9
g10
((lp735
g187
ag188
atp736
Rp737
sasVaccount_transactions.index
p738
(lp739
(dp740
g7
V/v1/marketplaces/:marketplace_id/accounts/:account_id/transactions
p741
sg9
g10
((lp742
S'HEAD'
p743
ag13
atp744
Rp745
sasVcredits.index
p746
(lp747
(dp748
g202
V/v1/credits
p749
sg204
g10
((lp750
S'HEAD'
p751
ag253
atp752
Rp753
sasVmarketplace_invoices.update
p754
(lp755
(dp756
g7
V/v1/marketplaces/:marketplace_id/invoices/:invoice_id
p757
sg9
g10
((lp758
g46
atp759
Rp760
sasVinvoice_collection.holds
p761
(lp762
(dp763
g7
V/v1/invoices/:invoice_id/holds
p764
sg9
g10
((lp765
g54
ag55
atp766
Rp767
sasVinvoice_collection.card_debits
p768
(lp769
(dp770
g7
V/v1/invoices/:invoice_id/card_debits
p771
sg9
g10
((lp772
g54
ag55
atp773
Rp774
sasVbank_account_authentications.index
p775
(lp776
(dp777
S'url'
p778
V/v1/bank_accounts/:bank_account_id/verifications
p779
sS'methods'
p780
g10
((lp781
S'HEAD'
p782
aVGET
p783
atp784
Rp785
sasVevent_callbacks.show
p786
(lp787
(dp788
g7
V/v1/events/:event_id/callbacks/:callback_id
p789
sg9
g10
((lp790
S'HEAD'
p791
ag13
atp792
Rp793
sasVbank_account_authentications_2.update
p794
(lp795
(dp796
g7
V/v1/bank_accounts/:bank_account_id/authentications/:authentication_id
p797
sg9
g10
((lp798
g46
atp799
Rp800
sasVmarketplace_invoice_collection.credits
p801
(lp802
(dp803
g7
V/v1/marketplace/:marketplace_id/invoices/:invoice_id/credits
p804
sg9
g10
((lp805
g187
ag188
atp806
Rp807
sasVinvoices.show
p808
(lp809
(dp810
g7
V/v1/invoices/:invoice_id
p811
sg9
g10
((lp812
S'HEAD'
p813
ag13
atp814
Rp815
sasVbank_account_authentications.create
p816
(lp817
(dp818
g778
V/v1/bank_accounts/:bank_account_id/verifications
p819
sg780
g10
((lp820
VPOST
p821
atp822
Rp823
sasVinvoices.index
p824
(lp825
(dp826
g7
V/v1/invoices
p827
sg9
g10
((lp828
S'HEAD'
p829
ag13
atp830
Rp831
sasVchargebacks.show
p832
(lp833
(dp834
g7
V/v1/chargebacks/:chargeback_id
p835
sg9
g10
((lp836
S'HEAD'
p837
ag13
atp838
Rp839
sasVaccount_search.index
p840
(lp841
(dp842
g7
V/v1/accounts/:account_id/search
p843
sg9
g10
((lp844
S'HEAD'
p845
ag13
atp846
Rp847
sasVmarketplace_bank_accounts.index
p848
(lp849
(dp850
g7
V/v1/marketplaces/:marketplace_id/bank_accounts
p851
sg9
g10
((lp852
S'HEAD'
p853
ag13
atp854
Rp855
sasVmarketplace_bank_accounts.update
p856
(lp857
(dp858
g303
V/v1/marketplaces/:marketplace_id/bank_accounts/:bank_account_id
p859
sg305
g10
((lp860
VPUT
p861
atp862
Rp863
sasVmerchants.update
p864
(lp865
(dp866
g7
V/v1/merchants/:merchant_id
p867
sg9
g10
((lp868
g46
atp869
Rp870
sasVmarketplace_callbacks.index
p871
(lp872
(dp873
g7
V/v1/marketplaces/:marketplace_id/callbacks
p874
sg9
g10
((lp875
S'HEAD'
p876
ag13
atp877
Rp878
sasVinvoice_collection.debits
p879
(lp880
(dp881
g7
V/v1/invoices/:invoice_id/debits
p882
sg9
g10
((lp883
g54
ag55
atp884
Rp885
sasVmarketplace_credits.index
p886
(lp887
(dp888
g7
V/v1/marketplaces/:marketplace_id/credits
p889
sg9
g10
((lp890
S'HEAD'
p891
ag13
atp892
Rp893
sasVsearch.index
p894
(lp895
(dp896
g7
V/v1/search
p897
sg9
g10
((lp898
S'HEAD'
p899
ag13
atp900
Rp901
sasVbank_account_authentications_2.create
p902
(lp903
(dp904
g7
V/v1/bank_accounts/:bank_account_id/authentications
p905
sg9
g10
((lp906
g244
atp907
Rp908
sasVdebits.update
p909
(lp910
(dp911
g534
V/v1/marketplaces/:marketplace_id/accounts/:account_id/debits/:debit_id
p912
sg536
g10
((lp913
VPUT
p914
atp915
Rp916
sa(dp917
g534
V/v1/marketplaces/:marketplace_id/holds/:hold_id/debits/:debit_id
p918
sg536
g10
((lp919
g914
atp920
Rp921
sa(dp922
g534
V/v1/marketplaces/:marketplace_id/debits/:debit_id
p923
sg536
g10
((lp924
g914
atp925
Rp926
sasVmarketplaces.show
p927
(lp928
(dp929
g7
V/v1/marketplaces/:marketplace_id
p930
sg9
g10
((lp931
S'HEAD'
p932
ag13
atp933
Rp934
sasVaccounts.create
p935
(lp936
(dp937
g33
V/v1/marketplaces/:marketplace_id/accounts
p938
sg35
g10
((lp939
VPOST
p940
atp941
Rp942
sa(dp943
g33
V/v1/marketplaces/:marketplace_id/accounts
p944
sg35
g942
sa(dp945
g33
V/v1/marketplaces/:marketplace_id/accounts
p946
sg35
g942
sasVmarketplace_search.index
p947
(lp948
(dp949
g7
V/v1/marketplaces/:marketplace_id/search
p950
sg9
g10
((lp951
S'HEAD'
p952
ag13
atp953
Rp954
sasVapi_keys.create
p955
(lp956
(dp957
g7
V/v1/api_keys
p958
sg9
g10
((lp959
g244
atp960
Rp961
sa(dp962
g7
V/v1/merchants/:merchant_id/api_keys
p963
sg9
g10
((lp964
g244
atp965
Rp966
sasVcard_transactions.index
p967
(lp968
(dp969
g7
V/v1/cards/:card_id/cards
p970
sg9
g10
((lp971
S'HEAD'
p972
ag13
atp973
Rp974
sasVinvoices.update
p975
(lp976
(dp977
g7
V/v1/invoices/:invoice_id
p978
sg9
g10
((lp979
g46
atp980
Rp981
sasVchargebacks.index
p982
(lp983
(dp984
g7
V/v1/chargebacks
p985
sg9
g10
((lp986
S'HEAD'
p987
ag13
atp988
Rp989
sasVtransactions.index
p990
(lp991
(dp992
S'url'
p993
V/v1/marketplaces/:marketplace_id/transactions
p994
sS'methods'
p995
g10
((lp996
S'HEAD'
p997
aVGET
p998
atp999
Rp1000
sasVbank_account_authentications.update
p1001
(lp1002
(dp1003
g778
V/v1/bank_accounts/:bank_account_id/verifications/:authentication_id
p1004
sg780
g10
((lp1005
VPUT
p1006
atp1007
Rp1008
sasVmerchant_statistics.show
p1009
(lp1010
(dp1011
g7
V/v1/merchants/statistics/:query_id
p1012
sg9
g10
((lp1013
S'HEAD'
p1014
ag13
atp1015
Rp1016
sasVevent_callbacks.update
p1017
(lp1018
(dp1019
g7
V/v1/events/:event_id/callbacks/:callback_id
p1020
sg9
g10
((lp1021
g46
atp1022
Rp1023
sasVinvoice_collection.refunds
p1024
(lp1025
(dp1026
g7
V/v1/invoices/:invoice_id/refunds
p1027
sg9
g10
((lp1028
g54
ag55
atp1029
Rp1030
sasVbank_accounts.delete
p1031
(lp1032
(dp1033
g303
V/v1/bank_accounts/:bank_account_id
p1034
sg305
g10
((lp1035
VDELETE
p1036
atp1037
Rp1038
sasVmarketplace_invoices.create
p1039
(lp1040
(dp1041
g7
V/v1/marketplaces/:marketplace_id/invoices
p1042
sg9
g10
((lp1043
g244
atp1044
Rp1045
sasVbank_account_authentications.show_current
p1046
(lp1047
(dp1048
g7
V/v1/bank_accounts/:bank_account_id/verification
p1049
sg9
g10
((lp1050
g647
ag648
atp1051
Rp1052
sasVmarketplace_callbacks.show
p1053
(lp1054
(dp1055
g7
V/v1/marketplaces/:marketplace_id/callbacks/:callback_id
p1056
sg9
g10
((lp1057
S'HEAD'
p1058
ag13
atp1059
Rp1060
sasVaccount_credits.index
p1061
(lp1062
(dp1063
g202
V/v1/marketplaces/:marketplace_id/accounts/:account_id/credits
p1064
sg204
g10
((lp1065
S'HEAD'
p1066
ag253
atp1067
Rp1068
sasVboom.show
p1069
(lp1070
(dp1071
g7
V/boom
p1072
sg9
g10
((lp1073
g235
aVGET
p1074
atp1075
Rp1076
sasVaccount_bank_accounts.update
p1077
(lp1078
(dp1079
g7
V/v1/marketplaces/:marketplace_id/accounts/:account_id/bank_accounts/:bank_account_id
p1080
sg9
g10
((lp1081
g46
atp1082
Rp1083
sasVaccount_bank_accounts.create
p1084
(lp1085
(dp1086
g7
V/v1/marketplaces/:marketplace_id/accounts/:account_id/bank_accounts
p1087
sg9
g10
((lp1088
g244
atp1089
Rp1090
sasVmerchants.index
p1091
(lp1092
(dp1093
g7
V/v1/merchants
p1094
sg9
g10
((lp1095
S'HEAD'
p1096
ag13
atp1097
Rp1098
sasVdebit_refunds.update
p1099
(lp1100
(dp1101
g7
V/v1/marketplaces/:marketplace_id/debits/:debit_id/refunds/:refund_id
p1102
sg9
g10
((lp1103
g46
atp1104
Rp1105
sasVbank_account_authentications.show
p1106
(lp1107
(dp1108
g778
V/v1/bank_accounts/:bank_account_id/verifications/:authentication_id
p1109
sg780
g10
((lp1110
S'HEAD'
p1111
ag783
atp1112
Rp1113
sasVrefunds.show
p1114
(lp1115
(dp1116
g424
V/v1/marketplaces/:marketplace_id/accounts/:account_id/refunds/:refund_id
p1117
sg426
g10
((lp1118
S'HEAD'
p1119
ag449
atp1120
Rp1121
sa(dp1122
g424
V/v1/marketplaces/:marketplace_id/refunds/:refund_id
p1123
sg426
g10
((lp1124
S'HEAD'
p1125
ag449
atp1126
Rp1127
sasVmarketplace_invoice_collection.lost_debit_chargebacks
p1128
(lp1129
(dp1130
g7
V/v1/marketplace/:marketplace_id/invoices/:invoice_id/lost_debit_chargebacks
p1131
sg9
g10
((lp1132
g187
ag188
atp1133
Rp1134
sasVmarketplace_cards.update
p1135
(lp1136
(dp1137
g61
V/v1/marketplaces/:marketplace_id/cards/:card_id
p1138
sg63
g10
((lp1139
VPUT
p1140
atp1141
Rp1142
sa(dp1143
g61
V/v1/marketplaces/:marketplace_id/cards/:card_id
p1144
sg63
g1142
sasVsettlements.index
p1145
(lp1146
(dp1147
g7
V/v1/settlements
p1148
sg9
g10
((lp1149
S'HEAD'
p1150
ag13
atp1151
Rp1152
sasVaccount_credits.update
p1153
(lp1154
(dp1155
g7
V/v1/marketplaces/:marketplace_id/accounts/:account_id/credits/:credit_id
p1156
sg9
g10
((lp1157
g46
atp1158
Rp1159
sasVaccounts.update
p1160
(lp1161
(dp1162
g33
V/v1/marketplaces/:marketplace_id/accounts/:account_id
p1163
sg35
g10
((lp1164
VPUT
p1165
atp1166
Rp1167
sa(dp1168
g33
V/v1/marketplaces/:marketplace_id/accounts/:account_id
p1169
sg35
g1167
sasVapi_keys.show
p1170
(lp1171
(dp1172
g7
V/v1/merchants/:merchant_id/api_keys/:api_key_id
p1173
sg9
g10
((lp1174
S'HEAD'
p1175
ag13
atp1176
Rp1177
sa(dp1178
g7
V/v1/api_keys/:api_key_id
p1179
sg9
g10
((lp1180
S'HEAD'
p1181
ag13
atp1182
Rp1183
sasVaccount_bank_accounts.delete
p1184
(lp1185
(dp1186
g7
V/v1/marketplaces/:marketplace_id/accounts/:account_id/bank_accounts/:bank_account_id
p1187
sg9
g10
((lp1188
g74
atp1189
Rp1190
sasVinvoice_collection.failed_credits
p1191
(lp1192
(dp1193
g7
V/v1/invoices/:invoice_id/failed_credits
p1194
sg9
g10
((lp1195
g54
ag55
atp1196
Rp1197
sasVcredit_events.index
p1198
(lp1199
(dp1200
g7
V/v1/credits/:credit_id/events
p1201
sg9
g10
((lp1202
S'HEAD'
p1203
ag13
atp1204
Rp1205
sasVmarketplace_events.index
p1206
(lp1207
(dp1208
g7
V/v1/marketplaces/:marketplace_id/events
p1209
sg9
g10
((lp1210
S'HEAD'
p1211
ag13
atp1212
Rp1213
sasVmarketplace_credits.create
p1214
(lp1215
(dp1216
g7
V/v1/marketplaces/:marketplace_id/credits
p1217
sg9
g10
((lp1218
g244
atp1219
Rp1220
sasVmarketplace_invoice_collection.card_debits
p1221
(lp1222
(dp1223
g7
V/v1/marketplace/:marketplace_id/invoices/:invoice_id/card_debits
p1224
sg9
g10
((lp1225
g187
ag188
atp1226
Rp1227
sasVdebits.show
p1228
(lp1229
(dp1230
g534
V/v1/marketplaces/:marketplace_id/accounts/:account_id/debits/:debit_id
p1231
sg536
g10
((lp1232
S'HEAD'
p1233
ag539
atp1234
Rp1235
sa(dp1236
g534
V/v1/marketplaces/:marketplace_id/holds/:hold_id/debits/:debit_id
p1237
sg536
g10
((lp1238
S'HEAD'
p1239
ag539
atp1240
Rp1241
sa(dp1242
g534
V/v1/marketplaces/:marketplace_id/debits/:debit_id
p1243
sg536
g10
((lp1244
S'HEAD'
p1245
ag539
atp1246
Rp1247
sasVmarketplace_invoice_collection.failed_credits
p1248
(lp1249
(dp1250
g7
V/v1/marketplace/:marketplace_id/invoices/:invoice_id/failed_credits
p1251
sg9
g10
((lp1252
g187
ag188
atp1253
Rp1254
sasVmarketplace_cards.index
p1255
(lp1256
(dp1257
g61
V/v1/marketplaces/:marketplace_id/cards
p1258
sg63
g10
((lp1259
S'HEAD'
p1260
ag66
atp1261
Rp1262
sasVtransaction_statistics.show
p1263
(lp1264
(dp1265
g7
V/v1/transactions/statistics/:query_id
p1266
sg9
g10
((lp1267
S'HEAD'
p1268
ag13
atp1269
Rp1270
sasVbank_account_authentications_2.index
p1271
(lp1272
(dp1273
g7
V/v1/bank_accounts/:bank_account_id/authentications
p1274
sg9
g10
((lp1275
S'HEAD'
p1276
ag13
atp1277
Rp1278
sas.