ccollections
defaultdict
p1
(c__builtin__
list
p2
tRp3
Vmarketplace_bank_accounts.show
p4
(lp5
(dp6
Vurl
p7
V/v1/marketplaces/:marketplace_id/bank_accounts/:bank_account_id
p8
sVmethods
p9
c__builtin__
set
p10
((lp11
S'HEAD'
p12
aVGET
p13
atRp14
sasVbank_accounts.update
p15
(lp16
(dp17
g7
V/v1/bank_accounts/:bank_account_id
p18
sg9
g10
((lp19
VPUT
p20
atRp21
sasVrefunds.create
p22
(lp23
(dp24
g7
V/v1/marketplaces/:marketplace_id/accounts/:account_id/refunds
p25
sg9
g10
((lp26
VPOST
p27
atRp28
sa(dp29
g7
V/v1/marketplaces/:marketplace_id/refunds
p30
sg9
g10
((lp31
g27
atRp32
sasVapi_keys.create
p33
(lp34
(dp35
g7
V/v1/api_keys
p36
sg9
g10
((lp37
g27
atRp38
sa(dp39
g7
V/v1/merchants/:merchant_id/api_keys
p40
sg9
g10
((lp41
g27
atRp42
sasVbank_account_transactions.index
p43
(lp44
(dp45
g7
V/v1/marketplaces/:marketplace_id/bank_accounts/:bank_account_id/transactions
p46
sg9
g10
((lp47
S'HEAD'
p48
ag13
atRp49
sa(dp50
g7
V/v1/bank_accounts/:bank_account_id/transactions
p51
sg9
g10
((lp52
S'HEAD'
p53
ag13
atRp54
sasVmarketplaces.show
p55
(lp56
(dp57
g7
V/v1/marketplaces/:marketplace_id
p58
sg9
g10
((lp59
S'HEAD'
p60
ag13
atRp61
sasVmarketplace_credits.show
p62
(lp63
(dp64
g7
V/v1/marketplaces/:marketplace_id/credits/:credit_id
p65
sg9
g10
((lp66
S'HEAD'
p67
ag13
atRp68
sasVaccounts.show
p69
(lp70
(dp71
g7
V/v1/marketplaces/:marketplace_id/accounts/:account_id
p72
sg9
g10
((lp73
S'HEAD'
p74
ag13
atRp75
sasVversions.show
p76
(lp77
(dp78
g7
V/v:version_id
p79
sg9
g10
((lp80
S'HEAD'
p81
aVGET
p82
atRp83
sasVaccounts.create
p84
(lp85
(dp86
g7
V/v1/marketplaces/:marketplace_id/accounts
p87
sg9
g10
((lp88
g27
atRp89
sasVmarketplace_cards.show
p90
(lp91
(dp92
g7
V/v1/marketplaces/:marketplace_id/cards/:card_id
p93
sg9
g10
((lp94
S'HEAD'
p95
ag13
atRp96
sasVtransactions.index
p97
(lp98
(dp99
g7
V/v1/marketplaces/:marketplace_id/transactions
p100
sg9
g10
((lp101
S'HEAD'
p102
ag13
atRp103
sasS'static'
p104
(lp105
(dp106
g7
V/static/:filename_id
p107
sg9
g10
((lp108
g81
aS'OPTIONS'
p109
aS'GET'
p110
atRp111
sasVdebit_refunds.index
p112
(lp113
(dp114
g7
V/v1/marketplaces/:marketplace_id/debits/:debit_id/refunds
p115
sg9
g10
((lp116
S'HEAD'
p117
ag13
atRp118
sasVdebit_refunds.create
p119
(lp120
(dp121
g7
V/v1/marketplaces/:marketplace_id/debits/:debit_id/refunds
p122
sg9
g10
((lp123
g27
atRp124
sasVaccount_transactions.index
p125
(lp126
(dp127
g7
V/v1/marketplaces/:marketplace_id/accounts/:account_id/transactions
p128
sg9
g10
((lp129
S'HEAD'
p130
ag13
atRp131
sasVrefunds.update
p132
(lp133
(dp134
g7
V/v1/marketplaces/:marketplace_id/accounts/:account_id/refunds/:refund_id
p135
sg9
g10
((lp136
g20
atRp137
sa(dp138
g7
V/v1/marketplaces/:marketplace_id/refunds/:refund_id
p139
sg9
g10
((lp140
g20
atRp141
sasVcredits.index
p142
(lp143
(dp144
g7
V/v1/credits
p145
sg9
g10
((lp146
S'HEAD'
p147
ag13
atRp148
sasVcredits.create
p149
(lp150
(dp151
g7
V/v1/credits
p152
sg9
g10
((lp153
g27
atRp154
sasVmerchant_statistics.show
p155
(lp156
(dp157
g7
V/v1/merchants/statistics/:query_id
p158
sg9
g10
((lp159
S'HEAD'
p160
ag13
atRp161
sasVmarketplaces.create
p162
(lp163
(dp164
g7
V/v1/marketplaces
p165
sg9
g10
((lp166
g27
atRp167
sasVrefunds.index
p168
(lp169
(dp170
g7
V/v1/marketplaces/:marketplace_id/accounts/:account_id/refunds
p171
sg9
g10
((lp172
S'HEAD'
p173
ag13
atRp174
sa(dp175
g7
V/v1/marketplaces/:marketplace_id/refunds
p176
sg9
g10
((lp177
S'HEAD'
p178
ag13
atRp179
sasVholds.update
p180
(lp181
(dp182
g7
V/v1/marketplaces/:marketplace_id/accounts/:account_id/holds/:hold_id
p183
sg9
g10
((lp184
g20
atRp185
sa(dp186
g7
V/v1/marketplaces/:marketplace_id/holds/:hold_id
p187
sg9
g10
((lp188
g20
atRp189
sasVholds.create
p190
(lp191
(dp192
g7
V/v1/marketplaces/:marketplace_id/accounts/:account_id/holds
p193
sg9
g10
((lp194
g27
atRp195
sa(dp196
g7
V/v1/marketplaces/:marketplace_id/holds
p197
sg9
g10
((lp198
g27
atRp199
sasVbank_account_credits.index
p200
(lp201
(dp202
g7
V/v1/bank_accounts/:bank_account_id/credits
p203
sg9
g10
((lp204
S'HEAD'
p205
ag13
atRp206
sasVmarketplace_cards.index
p207
(lp208
(dp209
g7
V/v1/marketplaces/:marketplace_id/cards
p210
sg9
g10
((lp211
S'HEAD'
p212
ag13
atRp213
sasVaccount_cards.index
p214
(lp215
(dp216
g7
V/v1/marketplaces/:marketplace_id/accounts/:account_id/cards
p217
sg9
g10
((lp218
S'HEAD'
p219
ag13
atRp220
sasVdebits.create
p221
(lp222
(dp223
g7
V/v1/marketplaces/:marketplace_id/accounts/:account_id/debits
p224
sg9
g10
((lp225
g27
atRp226
sa(dp227
g7
V/v1/marketplaces/:marketplace_id/holds/:hold_id/debits
p228
sg9
g10
((lp229
g27
atRp230
sa(dp231
g7
V/v1/marketplaces/:marketplace_id/debits
p232
sg9
g10
((lp233
g27
atRp234
sasVaccount_cards.update
p235
(lp236
(dp237
g7
V/v1/marketplaces/:marketplace_id/accounts/:account_id/cards/:card_id
p238
sg9
g10
((lp239
g20
atRp240
sasVaccount_credits.show
p241
(lp242
(dp243
g7
V/v1/marketplaces/:marketplace_id/accounts/:account_id/credits/:credit_id
p244
sg9
g10
((lp245
S'HEAD'
p246
ag13
atRp247
sasVholds.show
p248
(lp249
(dp250
g7
V/v1/marketplaces/:marketplace_id/accounts/:account_id/holds/:hold_id
p251
sg9
g10
((lp252
S'HEAD'
p253
ag13
atRp254
sa(dp255
g7
V/v1/marketplaces/:marketplace_id/holds/:hold_id
p256
sg9
g10
((lp257
S'HEAD'
p258
ag13
atRp259
sasVapi_keys.delete
p260
(lp261
(dp262
g7
V/v1/merchants/:merchant_id/api_keys/:api_key_id
p263
sg9
g10
((lp264
VDELETE
p265
atRp266
sa(dp267
g7
V/v1/api_keys/:api_key_id
p268
sg9
g10
((lp269
g265
atRp270
sasVmarketplaces.index
p271
(lp272
(dp273
g7
V/v1/marketplaces
p274
sg9
g10
((lp275
S'HEAD'
p276
ag13
atRp277
sasVmerchants.update
p278
(lp279
(dp280
g7
V/v1/merchants/:merchant_id
p281
sg9
g10
((lp282
g20
atRp283
sasVmerchants.show
p284
(lp285
(dp286
g7
V/v1/merchants/:merchant_id
p287
sg9
g10
((lp288
S'HEAD'
p289
ag13
atRp290
sasVaccount_credits.index
p291
(lp292
(dp293
g7
V/v1/marketplaces/:marketplace_id/accounts/:account_id/credits
p294
sg9
g10
((lp295
S'HEAD'
p296
ag13
atRp297
sasVaccount_credits.create
p298
(lp299
(dp300
g7
V/v1/marketplaces/:marketplace_id/accounts/:account_id/credits
p301
sg9
g10
((lp302
g27
atRp303
sasVboom.show
p304
(lp305
(dp306
g7
V/boom
p307
sg9
g10
((lp308
g81
aVGET
p309
atRp310
sasVaccounts.index
p311
(lp312
(dp313
g7
V/v1/marketplaces/:marketplace_id/accounts
p314
sg9
g10
((lp315
S'HEAD'
p316
ag13
atRp317
sasVmarketplace_statistics.show
p318
(lp319
(dp320
g7
V/v1/marketplaces/:marketplace_id/statistics/:query_id
p321
sg9
g10
((lp322
S'HEAD'
p323
ag13
atRp324
sa(dp325
g7
V/v1/marketplaces/statistics/:query_id
p326
sg9
g10
((lp327
S'HEAD'
p328
ag13
atRp329
sasVaccount_bank_accounts.update
p330
(lp331
(dp332
g7
V/v1/marketplaces/:marketplace_id/accounts/:account_id/bank_accounts/:bank_account_id
p333
sg9
g10
((lp334
g20
atRp335
sasVversions.index
p336
(lp337
(dp338
g7
V/
sg9
g10
((lp339
g81
ag82
atRp340
sasVaccount_bank_accounts.create
p341
(lp342
(dp343
g7
V/v1/marketplaces/:marketplace_id/accounts/:account_id/bank_accounts
p344
sg9
g10
((lp345
g27
atRp346
sasVmerchants.index
p347
(lp348
(dp349
g7
V/v1/merchants
p350
sg9
g10
((lp351
S'HEAD'
p352
ag13
atRp353
sasVdebit_refunds.update
p354
(lp355
(dp356
g7
V/v1/marketplaces/:marketplace_id/debits/:debit_id/refunds/:refund_id
p357
sg9
g10
((lp358
g20
atRp359
sasVbank_accounts.index
p360
(lp361
(dp362
g7
V/v1/bank_accounts
p363
sg9
g10
((lp364
S'HEAD'
p365
ag13
atRp366
sasVrefunds.show
p367
(lp368
(dp369
g7
V/v1/marketplaces/:marketplace_id/accounts/:account_id/refunds/:refund_id
p370
sg9
g10
((lp371
S'HEAD'
p372
ag13
atRp373
sa(dp374
g7
V/v1/marketplaces/:marketplace_id/refunds/:refund_id
p375
sg9
g10
((lp376
S'HEAD'
p377
ag13
atRp378
sasVapi_keys.index
p379
(lp380
(dp381
g7
V/v1/api_keys
p382
sg9
g10
((lp383
S'HEAD'
p384
ag13
atRp385
sa(dp386
g7
V/v1/merchants/:merchant_id/api_keys
p387
sg9
g10
((lp388
S'HEAD'
p389
ag13
atRp390
sasVmarketplace_credits.update
p391
(lp392
(dp393
g7
V/v1/marketplaces/:marketplace_id/credits/:credit_id
p394
sg9
g10
((lp395
g20
atRp396
sasVmarketplace_cards.update
p397
(lp398
(dp399
g7
V/v1/marketplaces/:marketplace_id/cards/:card_id
p400
sg9
g10
((lp401
g20
atRp402
sasVaccount_cards.create
p403
(lp404
(dp405
g7
V/v1/marketplaces/:marketplace_id/accounts/:account_id/cards
p406
sg9
g10
((lp407
g27
atRp408
sasVbank_account_authentications.create
p409
(lp410
(dp411
g7
V/v1/bank_accounts/:bank_account_id/authentication
p412
sg9
g10
((lp413
VPOST
p414
atRp415
sasVaccount_credits.update
p416
(lp417
(dp418
g7
V/v1/marketplaces/:marketplace_id/accounts/:account_id/credits/:credit_id
p419
sg9
g10
((lp420
g20
atRp421
sasVaccounts.update
p422
(lp423
(dp424
g7
V/v1/marketplaces/:marketplace_id/accounts/:account_id
p425
sg9
g10
((lp426
g20
atRp427
sasVholds.index
p428
(lp429
(dp430
g7
V/v1/marketplaces/:marketplace_id/accounts/:account_id/holds
p431
sg9
g10
((lp432
S'HEAD'
p433
ag13
atRp434
sa(dp435
g7
V/v1/marketplaces/:marketplace_id/holds
p436
sg9
g10
((lp437
S'HEAD'
p438
ag13
atRp439
sasVmarketplace_bank_accounts.create
p440
(lp441
(dp442
g7
V/v1/marketplaces/:marketplace_id/bank_accounts
p443
sg9
g10
((lp444
g27
atRp445
sasVapi_keys.show
p446
(lp447
(dp448
g7
V/v1/merchants/:merchant_id/api_keys/:api_key_id
p449
sg9
g10
((lp450
S'HEAD'
p451
ag13
atRp452
sa(dp453
g7
V/v1/api_keys/:api_key_id
p454
sg9
g10
((lp455
S'HEAD'
p456
ag13
atRp457
sasVbank_account_authentications.update
p458
(lp459
(dp460
g7
V/v1/bank_accounts/:bank_account_id/authentication
p461
sg9
g10
((lp462
VPUT
p463
atRp464
sasVbank_account_credits.show
p465
(lp466
(dp467
g7
V/v1/bank_accounts/:bank_account_id/credits/:credit_id
p468
sg9
g10
((lp469
S'HEAD'
p470
ag13
atRp471
sasVaccount_bank_accounts.index
p472
(lp473
(dp474
g7
V/v1/marketplaces/:marketplace_id/accounts/:account_id/bank_accounts
p475
sg9
g10
((lp476
S'HEAD'
p477
ag13
atRp478
sasVbank_accounts.delete
p479
(lp480
(dp481
g7
V/v1/bank_accounts/:bank_account_id
p482
sg9
g10
((lp483
g265
atRp484
sasVmarketplaces.update
p485
(lp486
(dp487
g7
V/v1/marketplaces/:marketplace_id
p488
sg9
g10
((lp489
g20
atRp490
sasVaccount_bank_accounts.delete
p491
(lp492
(dp493
g7
V/v1/marketplaces/:marketplace_id/accounts/:account_id/bank_accounts/:bank_account_id
p494
sg9
g10
((lp495
g265
atRp496
sasVdebits.index
p497
(lp498
(dp499
g7
V/v1/marketplaces/:marketplace_id/accounts/:account_id/debits
p500
sg9
g10
((lp501
S'HEAD'
p502
ag13
atRp503
sa(dp504
g7
V/v1/marketplaces/:marketplace_id/holds/:hold_id/debits
p505
sg9
g10
((lp506
S'HEAD'
p507
ag13
atRp508
sa(dp509
g7
V/v1/marketplaces/:marketplace_id/debits
p510
sg9
g10
((lp511
S'HEAD'
p512
ag13
atRp513
sasVcredits.show
p514
(lp515
(dp516
g7
V/v1/credits/:credit_id
p517
sg9
g10
((lp518
S'HEAD'
p519
ag13
atRp520
sasVmarketplace_bank_accounts.index
p521
(lp522
(dp523
g7
V/v1/marketplaces/:marketplace_id/bank_accounts
p524
sg9
g10
((lp525
S'HEAD'
p526
ag13
atRp527
sasVbank_accounts.show
p528
(lp529
(dp530
g7
V/v1/bank_accounts/:bank_account_id
p531
sg9
g10
((lp532
S'HEAD'
p533
ag13
atRp534
sasVmarketplace_bank_accounts.update
p535
(lp536
(dp537
g7
V/v1/marketplaces/:marketplace_id/bank_accounts/:bank_account_id
p538
sg9
g10
((lp539
g20
atRp540
sasVbank_account_authentications.show
p541
(lp542
(dp543
g7
V/v1/bank_accounts/:bank_account_id/authentication
p544
sg9
g10
((lp545
VHEAD
p546
aVGET
p547
atRp548
sasVbank_accounts.create
p549
(lp550
(dp551
g7
V/v1/bank_accounts
p552
sg9
g10
((lp553
g27
atRp554
sasVmarketplace_credits.create
p555
(lp556
(dp557
g7
V/v1/marketplaces/:marketplace_id/credits
p558
sg9
g10
((lp559
g27
atRp560
sasVaccount_bank_accounts.show
p561
(lp562
(dp563
g7
V/v1/marketplaces/:marketplace_id/accounts/:account_id/bank_accounts/:bank_account_id
p564
sg9
g10
((lp565
S'HEAD'
p566
ag13
atRp567
sasVdebits.show
p568
(lp569
(dp570
g7
V/v1/marketplaces/:marketplace_id/accounts/:account_id/debits/:debit_id
p571
sg9
g10
((lp572
S'HEAD'
p573
ag13
atRp574
sa(dp575
g7
V/v1/marketplaces/:marketplace_id/holds/:hold_id/debits/:debit_id
p576
sg9
g10
((lp577
S'HEAD'
p578
ag13
atRp579
sa(dp580
g7
V/v1/marketplaces/:marketplace_id/debits/:debit_id
p581
sg9
g10
((lp582
S'HEAD'
p583
ag13
atRp584
sasVcard_transactions.index
p585
(lp586
(dp587
g7
V/v1/cards/:card_id/cards
p588
sg9
g10
((lp589
S'HEAD'
p590
ag13
atRp591
sasVmarketplace_credits.index
p592
(lp593
(dp594
g7
V/v1/marketplaces/:marketplace_id/credits
p595
sg9
g10
((lp596
S'HEAD'
p597
ag13
atRp598
sasVhealth.show
p599
(lp600
(dp601
g7
V/health
p602
sg9
g10
((lp603
g81
aVGET
p604
atRp605
sasVdebit_refunds.show
p606
(lp607
(dp608
g7
V/v1/marketplaces/:marketplace_id/debits/:debit_id/refunds/:refund_id
p609
sg9
g10
((lp610
S'HEAD'
p611
ag13
atRp612
sasVmerchant_accounts.index
p613
(lp614
(dp615
g7
V/v1/merchants/:merchant_id/accounts
p616
sg9
g10
((lp617
S'HEAD'
p618
ag13
atRp619
sasVbank_account_credits.create
p620
(lp621
(dp622
g7
V/v1/bank_accounts/:bank_account_id/credits
p623
sg9
g10
((lp624
g27
atRp625
sasVaccount_cards.show
p626
(lp627
(dp628
g7
V/v1/marketplaces/:marketplace_id/accounts/:account_id/cards/:card_id
p629
sg9
g10
((lp630
S'HEAD'
p631
ag13
atRp632
sasVdebits.update
p633
(lp634
(dp635
g7
V/v1/marketplaces/:marketplace_id/accounts/:account_id/debits/:debit_id
p636
sg9
g10
((lp637
g20
atRp638
sa(dp639
g7
V/v1/marketplaces/:marketplace_id/holds/:hold_id/debits/:debit_id
p640
sg9
g10
((lp641
g20
atRp642
sa(dp643
g7
V/v1/marketplaces/:marketplace_id/debits/:debit_id
p644
sg9
g10
((lp645
g20
atRp646
sasVtransaction_statistics.show
p647
(lp648
(dp649
g7
V/v1/transactions/statistics/:query_id
p650
sg9
g10
((lp651
S'HEAD'
p652
ag13
atRp653
sasVmarketplace_cards.create
p654
(lp655
(dp656
g7
V/v1/marketplaces/:marketplace_id/cards
p657
sg9
g10
((lp658
g27
atRp659
sasVapi_keys.update
p660
(lp661
(dp662
g7
V/v1/merchants/:merchant_id/api_keys/:api_key_id
p663
sg9
g10
((lp664
g20
atRp665
sa(dp666
g7
V/v1/api_keys/:api_key_id
p667
sg9
g10
((lp668
g20
atRp669
sas.ccollections
defaultdict
p0
(c__builtin__
list
p1
tp2
Rp3
Vbank_accounts.update
p4
(lp5
(dp6
Vurl
p7
V/v1/bank_accounts/:bank_account_id
p8
sVmethods
p9
c__builtin__
set
p10
((lp11
VPUT
p12
atp13
Rp14
sasVrefunds.create
p15
(lp16
(dp17
g7
V/v1/marketplaces/:marketplace_id/accounts/:account_id/refunds
p18
sg9
g10
((lp19
VPOST
p20
atp21
Rp22
sa(dp23
g7
V/v1/marketplaces/:marketplace_id/refunds
p24
sg9
g10
((lp25
g20
atp26
Rp27
sasVdebit_refunds.update
p28
(lp29
(dp30
g7
V/v1/marketplaces/:marketplace_id/debits/:debit_id/refunds/:refund_id
p31
sg9
g10
((lp32
g12
atp33
Rp34
sasVbank_account_transactions.index
p35
(lp36
(dp37
g7
V/v1/marketplaces/:marketplace_id/bank_accounts/:bank_account_id/transactions
p38
sg9
g10
((lp39
S'HEAD'
p40
aVGET
p41
atp42
Rp43
sa(dp44
g7
V/v1/bank_accounts/:bank_account_id/transactions
p45
sg9
g10
((lp46
S'HEAD'
p47
ag41
atp48
Rp49
sasVaccounts.show
p50
(lp51
(dp52
S'url'
p53
V/v1/marketplaces/:marketplace_id/accounts/:account_id
p54
sS'methods'
p55
g10
((lp56
S'HEAD'
p57
aVGET
p58
atp59
Rp60
sasVversions.show
p61
(lp62
(dp63
g7
V/v:version_id
p64
sg9
g10
((lp65
S'HEAD'
p66
aVGET
p67
atp68
Rp69
sasVdebit_refunds.index
p70
(lp71
(dp72
g7
V/v1/marketplaces/:marketplace_id/debits/:debit_id/refunds
p73
sg9
g10
((lp74
S'HEAD'
p75
ag41
atp76
Rp77
sasVmarketplace_cards.show
p78
(lp79
(dp80
g7
V/v1/marketplaces/:marketplace_id/cards/:card_id
p81
sg9
g10
((lp82
S'HEAD'
p83
ag41
atp84
Rp85
sasVaccount_transactions.index
p86
(lp87
(dp88
g7
V/v1/marketplaces/:marketplace_id/accounts/:account_id/transactions
p89
sg9
g10
((lp90
S'HEAD'
p91
ag41
atp92
Rp93
sasVcredits.index
p94
(lp95
(dp96
g7
V/v1/credits
p97
sg9
g10
((lp98
S'HEAD'
p99
ag41
atp100
Rp101
sasVcredits.create
p102
(lp103
(dp104
g7
V/v1/credits
p105
sg9
g10
((lp106
g20
atp107
Rp108
sasVmarketplace_credits.update
p109
(lp110
(dp111
g7
V/v1/marketplaces/:marketplace_id/credits/:credit_id
p112
sg9
g10
((lp113
g12
atp114
Rp115
sasVholds.update
p116
(lp117
(dp118
g7
V/v1/marketplaces/:marketplace_id/accounts/:account_id/holds/:hold_id
p119
sg9
g10
((lp120
g12
atp121
Rp122
sa(dp123
g7
V/v1/marketplaces/:marketplace_id/holds/:hold_id
p124
sg9
g10
((lp125
g12
atp126
Rp127
sasVholds.create
p128
(lp129
(dp130
g7
V/v1/marketplaces/:marketplace_id/accounts/:account_id/holds
p131
sg9
g10
((lp132
g20
atp133
Rp134
sa(dp135
g7
V/v1/marketplaces/:marketplace_id/holds
p136
sg9
g10
((lp137
g20
atp138
Rp139
sasVaccount_cards.index
p140
(lp141
(dp142
g7
V/v1/marketplaces/:marketplace_id/accounts/:account_id/cards
p143
sg9
g10
((lp144
S'HEAD'
p145
ag41
atp146
Rp147
sasVdebits.create
p148
(lp149
(dp150
g7
V/v1/marketplaces/:marketplace_id/accounts/:account_id/debits
p1ccollections
defaultdict
p0
(c__builtin__
list
p1
tp2
Rp3
Vaccounts.create
p4
(lp5
(dp6
Vurl
p7
V/v1/marketplaces/:marketplace_id/accounts
p8
sVmethods
p9
c__builtin__
set
p10
((lp11
VPOST
p12
atp13
Rp14
sasVbank_accounts.update
p15
(lp16
(dp17
g7
V/v1/bank_accounts/:bank_account_id
p18
sg9
g10
((lp19
VPUT
p20
atp21
Rp22
sasVaccount_credits.show
p23
(lp24
(dp25
g7
V/v1/marketplaces/:marketplace_id/accounts/:account_id/credits/:credit_id
p26
sg9
g10
((lp27
S'HEAD'
p28
aVGET
p29
atp30
Rp31
sasVapi_keys.create
p32
(lp33
(dp34
g7
V/v1/api_keys
p35
sg9
g10
((lp36
g12
atp37
Rp38
sa(dp39
g7
V/v1/merchants/:merchant_id/api_keys
p40
sg9
g10
((lp41
g12
atp42
Rp43
sasVbank_account_transactions.index
p44
(lp45
(dp46
g7
V/v1/marketplaces/:marketplace_id/bank_accounts/:bank_account_id/transactions
p47
sg9
g10
((lp48
S'HEAD'
p49
ag29
atp50
Rp51
sa(dp52
g7
V/v1/bank_accounts/:bank_account_id/transactions
p53
sg9
g10
((lp54
S'HEAD'
p55
ag29
atp56
Rp57
sasVbank_accounts.index
p58
(lp59
(dp60
g7
V/v1/bank_accounts
p61
sg9
g10
((lp62
S'HEAD'
p63
ag29
atp64
Rp65
sasVmarketplace_credits.show
p66
(lp67
(dp68
g7
V/v1/marketplaces/:marketplace_id/credits/:credit_id
p69
sg9
g10
((lp70
S'HEAD'
p71
ag29
atp72
Rp73
sasVaccounts.show
p74
(lp75
(dp76
g7
V/v1/marketplaces/:marketplace_id/accounts/:account_id
p77
sg9
g10
((lp78
S'HEAD'
p79
ag29
atp80
Rp81
sasVtransaction_statistics.show
p82
(lp83
(dp84
g7
V/v1/transactions/statistics/:query_id
p85
sg9
g10
((lp86
S'HEAD'
p87
ag29
atp88
Rp89
sasVholds.show
p90
(lp91
(dp92
g7
V/v1/marketplaces/:marketplace_id/accounts/:account_id/holds/:hold_id
p93
sg9
g10
((lp94
S'HEAD'
p95
ag29
atp96
Rp97
sa(dp98
g7
V/v1/marketplaces/:marketplace_id/holds/:hold_id
p99
sg9
g10
((lp100
S'HEAD'
p101
ag29
atp102
Rp103
sasVbank_accounts.show
p104
(lp105
(dp106
g7
V/v1/bank_accounts/:bank_account_id
p107
sg9
g10
((lp108
S'HEAD'
p109
ag29
atp110
Rp111
sasVmarketplace_cards.show
p112
(lp113
(dp114
g7
V/v1/marketplaces/:marketplace_id/cards/:card_id
p115
sg9
g10
((lp116
S'HEAD'
p117
ag29
atp118
Rp119
sasVaccount_cards.show
p120
(lp121
(dp122
g7
V/v1/marketplaces/:marketplace_id/accounts/:account_id/cards/:card_id
p123
sg9
g10
((lp124
S'HEAD'
p125
ag29
atp126
Rp127
sasVapi_keys.index
p128
(lp129
(dp130
g7
V/v1/api_keys
p131
sg9
g10
((lp132
S'HEAD'
p133
ag29
atp134
Rp135
sa(dp136
g7
V/v1/merchants/:merchant_id/api_keys
p137
sg9
g10
((lp138
S'HEAD'
p139
ag29
atp140
Rp141
sasS'static'
p142
(lp143
(dp144
g7
V/static/:filename_id
p145
sg9
g10
((lp146
S'HEAD'
p147
aS'OPTIONS'
p148
aS'GET'
p149
atp150
Rp151
sasVapi_keys.update
p152
(lp153
(dp154
g7
V/v1/merchants/:merchant_id/api_keys/:api_key_id
p155
sg9
g10
((lp156
g20
atp157
Rp158
sa(dp159
g7
V/v1/api_keys/:api_key_id
p160
sg9
g10
((lp161
g20
atp162
Rp163
sasVdebit_refunds.index
p164
(lp165
(dp166
g7
V/v1/marketplaces/:marketplace_id/debits/:debit_id/refunds
p167
sg9
g10
((lp168
S'HEAD'
p169
ag29
atp170
Rp171
sasVdebit_refunds.create
p172
(lp173
(dp174
g7
V/v1/marketplaces/:marketplace_id/debits/:debit_id/refunds
p175
sg9
g10
((lp176
g12
atp177
Rp178
sasVaccount_transactions.index
p179
(lp180
(dp181
g7
V/v1/marketplaces/:marketplace_id/accounts/:account_id/transactions
p182
sg9
g10
((lp183
S'HEAD'
p184
ag29
atp185
Rp186
sasVrefunds.update
p187
(lp188
(dp189
g7
V/v1/marketplaces/:marketplace_id/accounts/:account_id/refunds/:refund_id
p190
sg9
g10
((lp191
g20
atp192
Rp193
sa(dp194
g7
V/v1/marketplaces/:marketplace_id/refunds/:refund_id
p195
sg9
g10
((lp196
g20
atp197
Rp198
sasVcredits.index
p199
(lp200
(dp201
g7
V/v1/credits
p202
sg9
g10
((lp203
S'HEAD'
p204
ag29
atp205
Rp206
sasVcredits.create
p207
(lp208
(dp209
g7
V/v1/credits
p210
sg9
g10
((lp211
g12
atp212
Rp213
sasVmerchant_statistics.show
p214
(lp215
(dp216
g7
V/v1/merchants/statistics/:query_id
p217
sg9
g10
((lp218
S'HEAD'
p219
ag29
atp220
Rp221
sasVmarketplaces.create
p222
(lp223
(dp224
g7
V/v1/marketplaces
p225
sg9
g10
((lp226
g12
atp227
Rp228
sasVrefunds.index
p229
(lp230
(dp231
g7
V/v1/marketplaces/:marketplace_id/accounts/:account_id/refunds
p232
sg9
g10
((lp233
S'HEAD'
p234
ag29
atp235
Rp236
sa(dp237
g7
V/v1/marketplaces/:marketplace_id/refunds
p238
sg9
g10
((lp239
S'HEAD'
p240
ag29
atp241
Rp242
sasVholds.update
p243
(lp244
(dp245
g7
V/v1/marketplaces/:marketplace_id/accounts/:account_id/holds/:hold_id
p246
sg9
g10
((lp247
g20
atp248
Rp249
sa(dp250
g7
V/v1/marketplaces/:marketplace_id/holds/:hold_id
p251
sg9
g10
((lp252
g20
atp253
Rp254
sasVholds.create
p255
(lp256
(dp257
g7
V/v1/marketplaces/:marketplace_id/accounts/:account_id/holds
p258
sg9
g10
((lp259
g12
atp260
Rp261
sa(dp262
g7
V/v1/marketplaces/:marketplace_id/holds
p263
sg9
g10
((lp264
g12
atp265
Rp266
sasVaccount_cards.index
p267
(lp268
(dp269
g7
V/v1/marketplaces/:marketplace_id/accounts/:account_id/cards
p270
sg9
g10
((lp271
S'HEAD'
p272
ag29
atp273
Rp274
sasVaccount_bank_accounts.delete
p275
(lp276
(dp277
g7
V/v1/marketplaces/:marketplace_id/accounts/:account_id/bank_accounts/:bank_account_id
p278
sg9
g10
((lp279
VDELETE
p280
atp281
Rp282
sasVaccount_cards.update
p283
(lp284
(dp285
g7
V/v1/marketplaces/:marketplace_id/accounts/:account_id/cards/:card_id
p286
sg9
g10
((lp287
g20
atp288
Rp289
sasVrefunds.create
p290
(lp291
(dp292
g7
V/v1/marketplaces/:marketplace_id/accounts/:account_id/refunds
p293
sg9
g10
((lp294
g12
atp295
Rp296
sa(dp297
g7
V/v1/marketplaces/:marketplace_id/refunds
p298
sg9
g10
((lp299
g12
atp300
Rp301
sasVversions.show
p302
(lp303
(dp304
g7
V/v:version_id
p305
sg9
g10
((lp306
g147
aVGET
p307
atp308
Rp309
sasVapi_keys.delete
p310
(lp311
(dp312
g7
V/v1/merchants/:merchant_id/api_keys/:api_key_id
p313
sg9
g10
((lp314
g280
atp315
Rp316
sa(dp317
g7
V/v1/api_keys/:api_key_id
p318
sg9
g10
((lp319
g280
atp320
Rp321
sasVmarketplaces.index
p322
(lp323
(dp324
g7
V/v1/marketplaces
p325
sg9
g10
((lp326
S'HEAD'
p327
ag29
atp328
Rp329
sasVmerchants.show
p330
(lp331
(dp332
g7
V/v1/merchants/:merchant_id
p333
sg9
g10
((lp334
S'HEAD'
p335
ag29
atp336
Rp337
sasVbank_account_credits.index
p338
(lp339
(dp340
g7
V/v1/bank_accounts/:bank_account_id/credits
p341
sg9
g10
((lp342
S'HEAD'
p343
ag29
atp344
Rp345
sasVaccount_credits.create
p346
(lp347
(dp348
g7
V/v1/marketplaces/:marketplace_id/accounts/:account_id/credits
p349
sg9
g10
((lp350
g12
atp351
Rp352
sasVboom.show
p353
(lp354
(dp355
g7
V/boom
p356
sg9
g10
((lp357
g147
aVGET
p358
atp359
Rp360
sasVaccounts.index
p361
(lp362
(dp363
g7
V/v1/marketplaces/:marketplace_id/accounts
p364
sg9
g10
((lp365
S'HEAD'
p366
ag29
atp367
Rp368
sasVmarketplace_statistics.show
p369
(lp370
(dp371
g7
V/v1/marketplaces/:marketplace_id/statistics/:query_id
p372
sg9
g10
((lp373
S'HEAD'
p374
ag29
atp375
Rp376
sa(dp377
g7
V/v1/marketplaces/statistics/:query_id
p378
sg9
g10
((lp379
S'HEAD'
p380
ag29
atp381
Rp382
sasVaccount_bank_accounts.update
p383
(lp384
(dp385
g7
V/v1/marketplaces/:marketplace_id/accounts/:account_id/bank_accounts/:bank_account_id
p386
sg9
g10
((lp387
g20
atp388
Rp389
sasVversions.index
p390
(lp391
(dp392
g7
V/
p393
sg9
g10
((lp394
g147
ag307
atp395
Rp396
sasVaccount_bank_accounts.create
p397
(lp398
(dp399
g7
V/v1/marketplaces/:marketplace_id/accounts/:account_id/bank_accounts
p400
sg9
g10
((lp401
g12
atp402
Rp403
sasVmerchants.index
p404
(lp405
(dp406
g7
V/v1/merchants
p407
sg9
g10
((lp408
S'HEAD'
p409
ag29
atp410
Rp411
sasVaccount_credits.index
p412
(lp413
(dp414
g7
V/v1/marketplaces/:marketplace_id/accounts/:account_id/credits
p415
sg9
g10
((lp416
S'HEAD'
p417
ag29
atp418
Rp419
sasVmarketplace_bank_accounts.show
p420
(lp421
(dp422
g7
V/v1/marketplaces/:marketplace_id/bank_accounts/:bank_account_id
p423
sg9
g10
((lp424
S'HEAD'
p425
ag29
atp426
Rp427
sasVrefunds.show
p428
(lp429
(dp430
g7
V/v1/marketplaces/:marketplace_id/accounts/:account_id/refunds/:refund_id
p431
sg9
g10
((lp432
S'HEAD'
p433
ag29
atp434
Rp435
sa(dp436
g7
V/v1/marketplaces/:marketplace_id/refunds/:refund_id
p437
sg9
g10
((lp438
S'HEAD'
p439
ag29
atp440
Rp441
sasVtransactions.index
p442
(lp443
(dp444
S'url'
p445
V/v1/marketplaces/:marketplace_id/transactions
p446
sS'methods'
p447
g10
((lp448
S'HEAD'
p449
aVGET
p450
atp451
Rp452
sasVmarketplace_credits.update
p453
(lp454
(dp455
g7
V/v1/marketplaces/:marketplace_id/credits/:credit_id
p456
sg9
g10
((lp457
g20
atp458
Rp459
sasVmarketplace_cards.update
p460
(lp461
(dp462
g7
V/v1/marketplaces/:marketplace_id/cards/:card_id
p463
sg9
g10
((lp464
g20
atp465
Rp466
sasVaccount_cards.create
p467
(lp468
(dp469
g7
V/v1/marketplaces/:marketplace_id/accounts/:account_id/cards
p470
sg9
g10
((lp471
g12
atp472
Rp473
sasVbank_account_authentications.create
p474
(lp475
(dp476
g7
V/v1/bank_accounts/:bank_account_id/authentication
p477
sg9
g10
((lp478
VPOST
p479
atp480
Rp481
sasVaccount_credits.update
p482
(lp483
(dp484
g7
V/v1/marketplaces/:marketplace_id/accounts/:account_id/credits/:credit_id
p485
sg9
g10
((lp486
g20
atp487
Rp488
sasVaccounts.update
p489
(lp490
(dp491
g7
V/v1/marketplaces/:marketplace_id/accounts/:account_id
p492
sg9
g10
((lp493
g20
atp494
Rp495
sasVholds.index
p496
(lp497
(dp498
g7
V/v1/marketplaces/:marketplace_id/accounts/:account_id/holds
p499
sg9
g10
((lp500
S'HEAD'
p501
ag29
atp502
Rp503
sa(dp504
g7
V/v1/marketplaces/:marketplace_id/holds
p505
sg9
g10
((lp506
S'HEAD'
p507
ag29
atp508
Rp509
sasVmarketplace_bank_accounts.create
p510
(lp511
(dp512
g7
V/v1/marketplaces/:marketplace_id/bank_accounts
p513
sg9
g10
((lp514
g12
atp515
Rp516
sasVbank_account_authentications.update
p517
(lp518
(dp519
g7
V/v1/bank_accounts/:bank_account_id/authentication
p520
sg9
g10
((lp521
VPUT
p522
atp523
Rp524
sasVbank_account_credits.show
p525
(lp526
(dp527
g7
V/v1/bank_accounts/:bank_account_id/credits/:credit_id
p528
sg9
g10
((lp529
S'HEAD'
p530
ag29
atp531
Rp532
sasVaccount_bank_accounts.index
p533
(lp534
(dp535
g7
V/v1/marketplaces/:marketplace_id/accounts/:account_id/bank_accounts
p536
sg9
g10
((lp537
S'HEAD'
p538
ag29
atp539
Rp540
sasVbank_accounts.delete
p541
(lp542
(dp543
g7
V/v1/bank_accounts/:bank_account_id
p544
sg9
g10
((lp545
g280
atp546
Rp547
sasVmarketplaces.update
p548
(lp549
(dp550
g7
V/v1/marketplaces/:marketplace_id
p551
sg9
g10
((lp552
g20
atp553
Rp554
sasVdebits.create
p555
(lp556
(dp557
g7
V/v1/marketplaces/:marketplace_id/accounts/:account_id/debits
p558
sg9
g10
((lp559
g12
atp560
Rp561
sa(dp562
g7
V/v1/marketplaces/:marketplace_id/holds/:hold_id/debits
p563
sg9
g10
((lp564
g12
atp565
Rp566
sa(dp567
g7
V/v1/marketplaces/:marketplace_id/debits
p568
sg9
g10
((lp569
g12
atp570
Rp571
sasVdebits.index
p572
(lp573
(dp574
g7
V/v1/marketplaces/:marketplace_id/accounts/:account_id/debits
p575
sg9
g10
((lp576
S'HEAD'
p577
ag29
atp578
Rp579
sa(dp580
g7
V/v1/marketplaces/:marketplace_id/holds/:hold_id/debits
p581
sg9
g10
((lp582
S'HEAD'
p583
ag29
atp584
Rp585
sa(dp586
g7
V/v1/marketplaces/:marketplace_id/debits
p587
sg9
g10
((lp588
S'HEAD'
p589
ag29
atp590
Rp591
sasVcredits.show
p592
(lp593
(dp594
g7
V/v1/credits/:credit_id
p595
sg9
g10
((lp596
S'HEAD'
p597
ag29
atp598
Rp599
sasVmarketplace_bank_accounts.index
p600
(lp601
(dp602
g7
V/v1/marketplaces/:marketplace_id/bank_accounts
p603
sg9
g10
((lp604
S'HEAD'
p605
ag29
atp606
Rp607
sasVmarketplace_bank_accounts.update
p608
(lp609
(dp610
g7
V/v1/marketplaces/:marketplace_id/bank_accounts/:bank_account_id
p611
sg9
g10
((lp612
g20
atp613
Rp614
sasVdebits.update
p615
(lp616
(dp617
g7
V/v1/marketplaces/:marketplace_id/accounts/:account_id/debits/:debit_id
p618
sg9
g10
((lp619
g20
atp620
Rp621
sa(dp622
g7
V/v1/marketplaces/:marketplace_id/holds/:hold_id/debits/:debit_id
p623
sg9
g10
((lp624
g20
atp625
Rp626
sa(dp627
g7
V/v1/marketplaces/:marketplace_id/debits/:debit_id
p628
sg9
g10
((lp629
g20
atp630
Rp631
sasVmerchants.update
p632
(lp633
(dp634
g7
V/v1/merchants/:merchant_id
p635
sg9
g10
((lp636
g20
atp637
Rp638
sasVbank_accounts.create
p639
(lp640
(dp641
g7
V/v1/bank_accounts
p642
sg9
g10
((lp643
g12
atp644
Rp645
sasVmarketplace_credits.create
p646
(lp647
(dp648
g7
V/v1/marketplaces/:marketplace_id/credits
p649
sg9
g10
((lp650
g12
atp651
Rp652
sasVaccount_bank_accounts.show
p653
(lp654
(dp655
g7
V/v1/marketplaces/:marketplace_id/accounts/:account_id/bank_accounts/:bank_account_id
p656
sg9
g10
((lp657
S'HEAD'
p658
ag29
atp659
Rp660
sasVdebits.show
p661
(lp662
(dp663
g7
V/v1/marketplaces/:marketplace_id/accounts/:account_id/debits/:debit_id
p664
sg9
g10
((lp665
S'HEAD'
p666
ag29
atp667
Rp668
sa(dp669
g7
V/v1/marketplaces/:marketplace_id/holds/:hold_id/debits/:debit_id
p670
sg9
g10
((lp671
S'HEAD'
p672
ag29
atp673
Rp674
sa(dp675
g7
V/v1/marketplaces/:marketplace_id/debits/:debit_id
p676
sg9
g10
((lp677
S'HEAD'
p678
ag29
atp679
Rp680
sasVbank_account_authentications.show
p681
(lp682
(dp683
g7
V/v1/bank_accounts/:bank_account_id/authentication
p684
sg9
g10
((lp685
VHEAD
p686
aVGET
p687
atp688
Rp689
sasVcard_transactions.index
p690
(lp691
(dp692
g7
V/v1/cards/:card_id/cards
p693
sg9
g10
((lp694
S'HEAD'
p695
ag29
atp696
Rp697
sasVmarketplace_credits.index
p698
(lp699
(dp700
g7
V/v1/marketplaces/:marketplace_id/credits
p701
sg9
g10
((lp702
S'HEAD'
p703
ag29
atp704
Rp705
sasVhealth.show
p706
(lp707
(dp708
g7
V/health
p709
sg9
g10
((lp710
g147
aVGET
p711
atp712
Rp713
sasVdebit_refunds.show
p714
(lp715
(dp716
g7
V/v1/marketplaces/:marketplace_id/debits/:debit_id/refunds/:refund_id
p717
sg9
g10
((lp718
S'HEAD'
p719
ag29
atp720
Rp721
sasVmerchant_accounts.index
p722
(lp723
(dp724
g7
V/v1/merchants/:merchant_id/accounts
p725
sg9
g10
((lp726
S'HEAD'
p727
ag29
atp728
Rp729
sasVbank_account_credits.create
p730
(lp731
(dp732
g7
V/v1/bank_accounts/:bank_account_id/credits
p733
sg9
g10
((lp734
g12
atp735
Rp736
sasVmarketplace_cards.index
p737
(lp738
(dp739
g7
V/v1/marketplaces/:marketplace_id/cards
p740
sg9
g10
((lp741
S'HEAD'
p742
ag29
atp743
Rp744
sasVdebit_refunds.update
p745
(lp746
(dp747
g7
V/v1/marketplaces/:marketplace_id/debits/:debit_id/refunds/:refund_id
p748
sg9
g10
((lp749
g20
atp750
Rp751
sasVmarketplaces.show
p752
(lp753
(dp754
g7
V/v1/marketplaces/:marketplace_id
p755
sg9
g10
((lp756
S'HEAD'
p757
ag29
atp758
Rp759
sasVmarketplace_cards.create
p760
(lp761
(dp762
g7
V/v1/marketplaces/:marketplace_id/cards
p763
sg9
g10
((lp764
g12
atp765
Rp766
sasVapi_keys.show
p767
(lp768
(dp769
g7
V/v1/merchants/:merchant_id/api_keys/:api_key_id
p770
sg9
g10
((lp771
S'HEAD'
p772
ag29
atp773
Rp774
sa(dp775
g7
V/v1/api_keys/:api_key_id
p776
sg9
g10
((lp777
S'HEAD'
p778
ag29
atp779
Rp780
sas.date
p774
(lp775
(dp776
g7
V/v1/merchants/:merchant_id/api_keys/:api_key_id
p777
sg9
g10
((lp778
g12
atp779
Rp780
sa(dp781
g7
V/v1/api_keys/:api_key_id
p782
sg9
g10
((lp783
g12
atp784
Rp785
sas.p784
g12
atp785
Rp786
sas.