(dp0
Vaccounts.create
p1
(lp2
(dp3
S'url'
p4
V/v1/marketplaces/:marketplace_id/accounts
p5
sS'methods'
p6
c__builtin__
set
p7
((lp8
VPOST
p9
atp10
Rp11
sa(dp12
g4
V/v1/marketplaces/:marketplace_id/accounts
p13
sg6
g11
sa(dp14
g4
V/v1/marketplaces/:marketplace_id/accounts
p15
sg6
g11
sasVmarketplace_callbacks.create
p16
(lp17
(dp18
S'url'
p19
V/v1/marketplaces/:marketplace_id/callbacks
p20
sS'methods'
p21
g7
((lp22
VPOST
p23
atp24
Rp25
sasVaccounts.show
p26
(lp27
(dp28
g4
V/v1/marketplaces/:marketplace_id/accounts/:account_id
p29
sg6
g7
((lp30
S'HEAD'
p31
aVGET
p32
atp33
Rp34
sasVbank_accounts.show
p35
(lp36
(dp37
S'url'
p38
V/v1/bank_accounts/:bank_account_id
p39
sS'methods'
p40
g7
((lp41
S'HEAD'
p42
aVGET
p43
atp44
Rp45
sasVmarketplace_cards.show
p46
(lp47
(dp48
S'url'
p49
V/v1/marketplaces/:marketplace_id/cards/:card_id
p50
sS'methods'
p51
g7
((lp52
S'HEAD'
p53
aVGET
p54
atp55
Rp56
sasVdebit_refunds.create
p57
(lp58
(dp59
S'url'
p60
V/v1/marketplaces/:marketplace_id/debits/:debit_id/refunds
p61
sS'methods'
p62
g7
((lp63
VPOST
p64
atp65
Rp66
sasVrefunds.update
p67
(lp68
(dp69
S'url'
p70
V/v1/marketplaces/:marketplace_id/accounts/:account_id/refunds/:refund_id
p71
sS'methods'
p72
g7
((lp73
VPUT
p74
atp75
Rp76
sa(dp77
g70
V/v1/marketplaces/:marketplace_id/refunds/:refund_id
p78
sg72
g7
((lp79
g74
atp80
Rp81
sasVcredits.index
p82
(lp83
(dp84
S'url'
p85
V/v1/credits
p86
sS'methods'
p87
g7
((lp88
S'HEAD'
p89
aVGET
p90
atp91
Rp92
sasVcredits.create
p93
(lp94
(dp95
g85
V/v1/credits
p96
sg87
g7
((lp97
VPOST
p98
atp99
Rp100
sasVrefunds.index
p101
(lp102
(dp103
g70
V/v1/marketplaces/:marketplace_id/accounts/:account_id/refunds
p104
sg72
g7
((lp105
S'HEAD'
p106
aVGET
p107
atp108
Rp109
sa(dp110
g70
V/v1/marketplaces/:marketplace_id/refunds
p111
sg72
g7
((lp112
S'HEAD'
p113
ag107
atp114
Rp115
sasVholds.update
p116
(lp117
(dp118
S'url'
p119
V/v1/marketplaces/:marketplace_id/accounts/:account_id/holds/:hold_id
p120
sS'methods'
p121
g7
((lp122
VPUT
p123
atp124
Rp125
sa(dp126
g119
V/v1/marketplaces/:marketplace_id/holds/:hold_id
p127
sg121
g7
((lp128
g123
atp129
Rp130
sa(dp131
g119
V/v1/marketplaces/:marketplace_id/accounts/:account_id/holds/:hold_id
p132
sg121
g125
sa(dp133
g119
V/v1/marketplaces/:marketplace_id/holds/:hold_id
p134
sg121
g130
sasVholds.create
p135
(lp136
(dp137
g119
V/v1/marketplaces/:marketplace_id/accounts/:account_id/holds
p138
sg121
g7
((lp139
VPOST
p140
atp141
Rp142
sa(dp143
g119
V/v1/marketplaces/:marketplace_id/holds
p144
sg121
g7
((lp145
g140
atp146
Rp147
sasVaccount_cards.index
p148
(lp149
(dp150
g49
V/v1/marketplaces/:marketplace_id/accounts/:account_id/cards
p151
sg51
g7
((lp152
S'HEAD'
p153
ag54
atp154
Rp155
sasVrefunds.create
p156
(lp157
(dp158
g70
V/v1/marketplaces/:marketplace_id/accounts/:account_id/refunds
p159
sg72
g7
((lp160
VPOST
p161
atp162
Rp163
sa(dp164
g70
V/v1/marketplaces/:marketplace_id/refunds
p165
sg72
g7
((lp166
g161
atp167
Rp168
sasVholds.show
p169
(lp170
(dp171
g119
V/v1/marketplaces/:marketplace_id/accounts/:account_id/holds/:hold_id
p172
sg121
g7
((lp173
S'HEAD'
p174
aVGET
p175
atp176
Rp177
sa(dp178
g119
V/v1/marketplaces/:marketplace_id/holds/:hold_id
p179
sg121
g7
((lp180
S'HEAD'
p181
ag175
atp182
Rp183
sasVmarketplace_callbacks.show
p184
(lp185
(dp186
g19
V/v1/marketplaces/:marketplace_id/callbacks/:callback_id
p187
sg21
g7
((lp188
S'HEAD'
p189
aVGET
p190
atp191
Rp192
sasVbank_account_credits.index
p193
(lp194
(dp195
g85
V/v1/bank_accounts/:bank_account_id/credits
p196
sg87
g7
((lp197
S'HEAD'
p198
ag90
atp199
Rp200
sasVaccount_credits.create
p201
(lp202
(dp203
g85
V/v1/marketplaces/:marketplace_id/accounts/:account_id/credits
p204
sg87
g7
((lp205
g98
atp206
Rp207
sasVaccounts.index
p208
(lp209
(dp210
g4
V/v1/marketplaces/:marketplace_id/accounts
p211
sg6
g7
((lp212
S'HEAD'
p213
ag32
atp214
Rp215
sasVbank_account_credits.create
p216
(lp217
(dp218
g85
V/v1/bank_accounts/:bank_account_id/credits
p219
sg87
g7
((lp220
g98
atp221
Rp222
sasVaccount_credits.index
p223
(lp224
(dp225
g85
V/v1/marketplaces/:marketplace_id/accounts/:account_id/credits
p226
sg87
g7
((lp227
S'HEAD'
p228
ag90
atp229
Rp230
sasVbank_accounts.index
p231
(lp232
(dp233
g38
V/v1/bank_accounts
p234
sg40
g7
((lp235
S'HEAD'
p236
ag43
atp237
Rp238
sasVrefunds.show
p239
(lp240
(dp241
g70
V/v1/marketplaces/:marketplace_id/accounts/:account_id/refunds/:refund_id
p242
sg72
g7
((lp243
S'HEAD'
p244
ag107
atp245
Rp246
sa(dp247
g70
V/v1/marketplaces/:marketplace_id/refunds/:refund_id
p248
sg72
g7
((lp249
S'HEAD'
p250
ag107
atp251
Rp252
sasVtransactions.index
p253
(lp254
(dp255
S'url'
p256
V/v1/marketplaces/:marketplace_id/transactions
p257
sS'methods'
p258
g7
((lp259
S'HEAD'
p260
aVGET
p261
atp262
Rp263
sasVmarketplace_callbacks.delete
p264
(lp265
(dp266
g19
V/v1/marketplaces/:marketplace_id/callbacks/:callback_id
p267
sg21
g7
((lp268
VDELETE
p269
atp270
Rp271
sasVmarketplace_cards.update
p272
(lp273
(dp274
g49
V/v1/marketplaces/:marketplace_id/cards/:card_id
p275
sg51
g7
((lp276
VPUT
p277
atp278
Rp279
sa(dp280
g49
V/v1/marketplaces/:marketplace_id/cards/:card_id
p281
sg51
g279
sasVaccounts.update
p282
(lp283
(dp284
g4
V/v1/marketplaces/:marketplace_id/accounts/:account_id
p285
sg6
g7
((lp286
VPUT
p287
atp288
Rp289
sa(dp290
g4
V/v1/marketplaces/:marketplace_id/accounts/:account_id
p291
sg6
g289
sasVholds.index
p292
(lp293
(dp294
g119
V/v1/marketplaces/:marketplace_id/accounts/:account_id/holds
p295
sg121
g7
((lp296
S'HEAD'
p297
ag175
atp298
Rp299
sa(dp300
g119
V/v1/marketplaces/:marketplace_id/holds
p301
sg121
g7
((lp302
S'HEAD'
p303
ag175
atp304
Rp305
sasVaccount_bank_accounts.index
p306
(lp307
(dp308
g38
V/v1/marketplaces/:marketplace_id/accounts/:account_id/bank_accounts
p309
sg40
g7
((lp310
S'HEAD'
p311
ag43
atp312
Rp313
sasVbank_accounts.delete
p314
(lp315
(dp316
g38
V/v1/bank_accounts/:bank_account_id
p317
sg40
g7
((lp318
VDELETE
p319
atp320
Rp321
sasVdebits.create
p322
(lp323
(dp324
g60
V/v1/marketplaces/:marketplace_id/accounts/:account_id/debits
p325
sg62
g7
((lp326
g64
atp327
Rp328
sa(dp329
g60
V/v1/marketplaces/:marketplace_id/holds/:hold_id/debits
p330
sg62
g7
((lp331
g64
atp332
Rp333
sa(dp334
g60
V/v1/marketplaces/:marketplace_id/debits
p335
sg62
g7
((lp336
g64
atp337
Rp338
sasVdebits.index
p339
(lp340
(dp341
g60
V/v1/marketplaces/:marketplace_id/accounts/:account_id/debits
p342
sg62
g7
((lp343
S'HEAD'
p344
aVGET
p345
atp346
Rp347
sa(dp348
g60
V/v1/marketplaces/:marketplace_id/holds/:hold_id/debits
p349
sg62
g7
((lp350
S'HEAD'
p351
ag345
atp352
Rp353
sa(dp354
g60
V/v1/marketplaces/:marketplace_id/debits
p355
sg62
g7
((lp356
S'HEAD'
p357
ag345
atp358
Rp359
sasVcredits.show
p360
(lp361
(dp362
g85
V/v1/credits/:credit_id
p363
sg87
g7
((lp364
S'HEAD'
p365
ag90
atp366
Rp367
sasVbank_accounts.create
p368
(lp369
(dp370
g38
V/v1/bank_accounts
p371
sg40
g7
((lp372
VPOST
p373
atp374
Rp375
sasVmarketplace_bank_accounts.update
p376
(lp377
(dp378
g38
V/v1/marketplaces/:marketplace_id/bank_accounts/:bank_account_id
p379
sg40
g7
((lp380
VPUT
p381
atp382
Rp383
sasVmarketplace_callbacks.index
p384
(lp385
(dp386
g19
V/v1/marketplaces/:marketplace_id/callbacks
p387
sg21
g7
((lp388
S'HEAD'
p389
ag190
atp390
Rp391
sasVevents.show
p392
(lp393
(dp394
S'url'
p395
V/v1/events/:event_id
p396
sS'methods'
p397
g7
((lp398
S'HEAD'
p399
aVGET
p400
atp401
Rp402
sasVdebits.show
p403
(lp404
(dp405
g60
V/v1/marketplaces/:marketplace_id/accounts/:account_id/debits/:debit_id
p406
sg62
g7
((lp407
S'HEAD'
p408
ag345
atp409
Rp410
sa(dp411
g60
V/v1/marketplaces/:marketplace_id/holds/:hold_id/debits/:debit_id
p412
sg62
g7
((lp413
S'HEAD'
p414
ag345
atp415
Rp416
sa(dp417
g60
V/v1/marketplaces/:marketplace_id/debits/:debit_id
p418
sg62
g7
((lp419
S'HEAD'
p420
ag345
atp421
Rp422
sasVevents.index
p423
(lp424
(dp425
g395
V/v1/events
p426
sg397
g7
((lp427
S'HEAD'
p428
ag400
atp429
Rp430
sasVmarketplace_cards.index
p431
(lp432
(dp433
g49
V/v1/marketplaces/:marketplace_id/cards
p434
sg51
g7
((lp435
S'HEAD'
p436
ag54
atp437
Rp438
sasVdebits.update
p439
(lp440
(dp441
g60
V/v1/marketplaces/:marketplace_id/accounts/:account_id/debits/:debit_id
p442
sg62
g7
((lp443
VPUT
p444
atp445
Rp446
sa(dp447
g60
V/v1/marketplaces/:marketplace_id/holds/:hold_id/debits/:debit_id
p448
sg62
g7
((lp449
g444
atp450
Rp451
sa(dp452
g60
V/v1/marketplaces/:marketplace_id/debits/:debit_id
p453
sg62
g7
((lp454
g444
atp455
Rp456
sasVmarketplace_cards.create
p457
(lp458
(dp459
g49
V/v1/marketplaces/:marketplace_id/cards
p460
sg51
g7
((lp461
VPOST
p462
atp463
Rp464
sas.