(dp0
Vaccounts.create
p1
(lp2
(dp3
S'url'
p4
V/v1/marketplaces/:marketplace_id/accounts
p5
sS'methods'
p6
c__builtin__
set
p7
((lp8
VPOST
p9
atp10
Rp11
sa(dp12
g4
V/v1/marketplaces/:marketplace_id/accounts
p13
sg6
g11
sa(dp14
g4
V/v1/marketplaces/:marketplace_id/accounts
p15
sg6
g11
sasVaccounts.show
p16
(lp17
(dp18
g4
V/v1/marketplaces/:marketplace_id/accounts/:account_id
p19
sg6
g7
((lp20
S'HEAD'
p21
aVGET
p22
atp23
Rp24
sasVbank_accounts.show
p25
(lp26
(dp27
S'url'
p28
V/v1/bank_accounts/:bank_account_id
p29
sS'methods'
p30
g7
((lp31
S'HEAD'
p32
aVGET
p33
atp34
Rp35
sasVmarketplace_cards.show
p36
(lp37
(dp38
S'url'
p39
V/v1/marketplaces/:marketplace_id/cards/:card_id
p40
sS'methods'
p41
g7
((lp42
S'HEAD'
p43
aVGET
p44
atp45
Rp46
sasVdebit_refunds.create
p47
(lp48
(dp49
S'url'
p50
V/v1/marketplaces/:marketplace_id/debits/:debit_id/refunds
p51
sS'methods'
p52
g7
((lp53
VPOST
p54
atp55
Rp56
sasVrefunds.update
p57
(lp58
(dp59
S'url'
p60
V/v1/marketplaces/:marketplace_id/accounts/:account_id/refunds/:refund_id
p61
sS'methods'
p62
g7
((lp63
VPUT
p64
atp65
Rp66
sa(dp67
g60
V/v1/marketplaces/:marketplace_id/refunds/:refund_id
p68
sg62
g7
((lp69
g64
atp70
Rp71
sasVcredits.index
p72
(lp73
(dp74
S'url'
p75
V/v1/credits
p76
sS'methods'
p77
g7
((lp78
S'HEAD'
p79
aVGET
p80
atp81
Rp82
sasVcredits.create
p83
(lp84
(dp85
g75
V/v1/credits
p86
sg77
g7
((lp87
VPOST
p88
atp89
Rp90
sasVholds.create
p91
(lp92
(dp93
S'url'
p94
V/v1/marketplaces/:marketplace_id/accounts/:account_id/holds
p95
sS'methods'
p96
g7
((lp97
VPOST
p98
atp99
Rp100
sa(dp101
g94
V/v1/marketplaces/:marketplace_id/holds
p102
sg96
g7
((lp103
g98
atp104
Rp105
sasVrefunds.index
p106
(lp107
(dp108
g60
V/v1/marketplaces/:marketplace_id/accounts/:account_id/refunds
p109
sg62
g7
((lp110
S'HEAD'
p111
aVGET
p112
atp113
Rp114
sa(dp115
g60
V/v1/marketplaces/:marketplace_id/refunds
p116
sg62
g7
((lp117
S'HEAD'
p118
ag112
atp119
Rp120
sasVholds.update
p121
(lp122
(dp123
g94
V/v1/marketplaces/:marketplace_id/accounts/:account_id/holds/:hold_id
p124
sg96
g7
((lp125
VPUT
p126
atp127
Rp128
sa(dp129
g94
V/v1/marketplaces/:marketplace_id/holds/:hold_id
p130
sg96
g7
((lp131
g126
atp132
Rp133
sa(dp134
g94
V/v1/marketplaces/:marketplace_id/accounts/:account_id/holds/:hold_id
p135
sg96
g128
sa(dp136
g94
V/v1/marketplaces/:marketplace_id/holds/:hold_id
p137
sg96
g133
sasVbank_accounts.delete
p138
(lp139
(dp140
g28
V/v1/bank_accounts/:bank_account_id
p141
sg30
g7
((lp142
VDELETE
p143
atp144
Rp145
sasVaccount_cards.index
p146
(lp147
(dp148
g39
V/v1/marketplaces/:marketplace_id/accounts/:account_id/cards
p149
sg41
g7
((lp150
S'HEAD'
p151
ag44
atp152
Rp153
sasVrefunds.create
p154
(lp155
(dp156
g60
V/v1/marketplaces/:marketplace_id/accounts/:account_id/refunds
p157
sg62
g7
((lp158
VPOST
p159
atp160
Rp161
sa(dp162
g60
V/v1/marketplaces/:marketplace_id/refunds
p163
sg62
g7
((lp164
g159
atp165
Rp166
sasVholds.show
p167
(lp168
(dp169
g94
V/v1/marketplaces/:marketplace_id/accounts/:account_id/holds/:hold_id
p170
sg96
g7
((lp171
S'HEAD'
p172
aVGET
p173
atp174
Rp175
sa(dp176
g94
V/v1/marketplaces/:marketplace_id/holds/:hold_id
p177
sg96
g7
((lp178
S'HEAD'
p179
ag173
atp180
Rp181
sasVaccount_credits.index
p182
(lp183
(dp184
g75
V/v1/marketplaces/:marketplace_id/accounts/:account_id/credits
p185
sg77
g7
((lp186
S'HEAD'
p187
ag80
atp188
Rp189
sasVaccount_credits.create
p190
(lp191
(dp192
g75
V/v1/marketplaces/:marketplace_id/accounts/:account_id/credits
p193
sg77
g7
((lp194
g88
atp195
Rp196
sasVaccounts.index
p197
(lp198
(dp199
g4
V/v1/marketplaces/:marketplace_id/accounts
p200
sg6
g7
((lp201
S'HEAD'
p202
ag22
atp203
Rp204
sasVbank_account_credits.create
p205
(lp206
(dp207
g75
V/v1/bank_accounts/:bank_account_id/credits
p208
sg77
g7
((lp209
g88
atp210
Rp211
sasVbank_account_credits.index
p212
(lp213
(dp214
g75
V/v1/bank_accounts/:bank_account_id/credits
p215
sg77
g7
((lp216
S'HEAD'
p217
ag80
atp218
Rp219
sasVbank_accounts.index
p220
(lp221
(dp222
g28
V/v1/bank_accounts
p223
sg30
g7
((lp224
S'HEAD'
p225
ag33
atp226
Rp227
sasVrefunds.show
p228
(lp229
(dp230
g60
V/v1/marketplaces/:marketplace_id/accounts/:account_id/refunds/:refund_id
p231
sg62
g7
((lp232
S'HEAD'
p233
ag112
atp234
Rp235
sa(dp236
g60
V/v1/marketplaces/:marketplace_id/refunds/:refund_id
p237
sg62
g7
((lp238
S'HEAD'
p239
ag112
atp240
Rp241
sasVtransactions.index
p242
(lp243
(dp244
S'url'
p245
V/v1/marketplaces/:marketplace_id/transactions
p246
sS'methods'
p247
g7
((lp248
S'HEAD'
p249
aVGET
p250
atp251
Rp252
sasVmarketplace_cards.update
p253
(lp254
(dp255
g39
V/v1/marketplaces/:marketplace_id/cards/:card_id
p256
sg41
g7
((lp257
VPUT
p258
atp259
Rp260
sa(dp261
g39
V/v1/marketplaces/:marketplace_id/cards/:card_id
p262
sg41
g260
sasVaccounts.update
p263
(lp264
(dp265
g4
V/v1/marketplaces/:marketplace_id/accounts/:account_id
p266
sg6
g7
((lp267
VPUT
p268
atp269
Rp270
sa(dp271
g4
V/v1/marketplaces/:marketplace_id/accounts/:account_id
p272
sg6
g270
sasVholds.index
p273
(lp274
(dp275
g94
V/v1/marketplaces/:marketplace_id/accounts/:account_id/holds
p276
sg96
g7
((lp277
S'HEAD'
p278
ag173
atp279
Rp280
sa(dp281
g94
V/v1/marketplaces/:marketplace_id/holds
p282
sg96
g7
((lp283
S'HEAD'
p284
ag173
atp285
Rp286
sasVaccount_bank_accounts.index
p287
(lp288
(dp289
g28
V/v1/marketplaces/:marketplace_id/accounts/:account_id/bank_accounts
p290
sg30
g7
((lp291
S'HEAD'
p292
ag33
atp293
Rp294
sasVcredits.show
p295
(lp296
(dp297
g75
V/v1/credits/:credit_id
p298
sg77
g7
((lp299
S'HEAD'
p300
ag80
atp301
Rp302
sasVdebits.create
p303
(lp304
(dp305
g50
V/v1/marketplaces/:marketplace_id/accounts/:account_id/debits
p306
sg52
g7
((lp307
g54
atp308
Rp309
sa(dp310
g50
V/v1/marketplaces/:marketplace_id/holds/:hold_id/debits
p311
sg52
g7
((lp312
g54
atp313
Rp314
sa(dp315
g50
V/v1/marketplaces/:marketplace_id/debits
p316
sg52
g7
((lp317
g54
atp318
Rp319
sasVdebits.index
p320
(lp321
(dp322
g50
V/v1/marketplaces/:marketplace_id/accounts/:account_id/debits
p323
sg52
g7
((lp324
S'HEAD'
p325
aVGET
p326
atp327
Rp328
sa(dp329
g50
V/v1/marketplaces/:marketplace_id/holds/:hold_id/debits
p330
sg52
g7
((lp331
S'HEAD'
p332
ag326
atp333
Rp334
sa(dp335
g50
V/v1/marketplaces/:marketplace_id/debits
p336
sg52
g7
((lp337
S'HEAD'
p338
ag326
atp339
Rp340
sasVmarketplace_bank_accounts.update
p341
(lp342
(dp343
g28
V/v1/marketplaces/:marketplace_id/bank_accounts/:bank_account_id
p344
sg30
g7
((lp345
VPUT
p346
atp347
Rp348
sasVbank_accounts.create
p349
(lp350
(dp351
g28
V/v1/bank_accounts
p352
sg30
g7
((lp353
VPOST
p354
atp355
Rp356
sasVdebits.show
p357
(lp358
(dp359
g50
V/v1/marketplaces/:marketplace_id/accounts/:account_id/debits/:debit_id
p360
sg52
g7
((lp361
S'HEAD'
p362
ag326
atp363
Rp364
sa(dp365
g50
V/v1/marketplaces/:marketplace_id/holds/:hold_id/debits/:debit_id
p366
sg52
g7
((lp367
S'HEAD'
p368
ag326
atp369
Rp370
sa(dp371
g50
V/v1/marketplaces/:marketplace_id/debits/:debit_id
p372
sg52
g7
((lp373
S'HEAD'
p374
ag326
atp375
Rp376
sasVmarketplace_cards.index
p377
(lp378
(dp379
g39
V/v1/marketplaces/:marketplace_id/cards
p380
sg41
g7
((lp381
S'HEAD'
p382
ag44
atp383
Rp384
sasVdebits.update
p385
(lp386
(dp387
g50
V/v1/marketplaces/:marketplace_id/accounts/:account_id/debits/:debit_id
p388
sg52
g7
((lp389
VPUT
p390
atp391
Rp392
sa(dp393
g50
V/v1/marketplaces/:marketplace_id/holds/:hold_id/debits/:debit_id
p394
sg52
g7
((lp395
g390
atp396
Rp397
sa(dp398
g50
V/v1/marketplaces/:marketplace_id/debits/:debit_id
p399
sg52
g7
((lp400
g390
atp401
Rp402
sasVmarketplace_cards.create
p403
(lp404
(dp405
g39
V/v1/marketplaces/:marketplace_id/cards
p406
sg41
g7
((lp407
VPOST
p408
atp409
Rp410
sas.