ccollections
defaultdict
p0
(c__builtin__
list
p1
tp2
Rp3
Vaccount_credits.show
p4
(lp5
(dp6
Vurl
p7
V/v1/marketplaces/:marketplace_id/accounts/:account_id/credits/:credit_id
p8
sVmethods
p9
c__builtin__
set
p10
((lp11
S'HEAD'
p12
aVGET
p13
atp14
Rp15
sasVbank_account_transactions.index
p16
(lp17
(dp18
g7
V/v1/marketplaces/:marketplace_id/bank_accounts/:bank_account_id/transactions
p19
sg9
g10
((lp20
S'HEAD'
p21
ag13
atp22
Rp23
sa(dp24
g7
V/v1/bank_accounts/:bank_account_id/transactions
p25
sg9
g10
((lp26
S'HEAD'
p27
ag13
atp28
Rp29
sasVaccounts.show
p30
(lp31
(dp32
g7
V/v1/marketplaces/:marketplace_id/accounts/:account_id
p33
sg9
g10
((lp34
S'HEAD'
p35
ag13
atp36
Rp37
sasVbank_accounts.update
p38
(lp39
(dp40
g7
V/v1/bank_accounts/:bank_account_id
p41
sg9
g10
((lp42
VPUT
p43
atp44
Rp45
sasVinvoice_collection.bank_account_debits
p46
(lp47
(dp48
g7
V/v1/invoices/:invoice_id/bank_account_debits
p49
sg9
g10
((lp50
VHEAD
p51
aVGET
p52
atp53
Rp54
sasVmarketplace_cards.show
p55
(lp56
(dp57
g7
V/v1/marketplaces/:marketplace_id/cards/:card_id
p58
sg9
g10
((lp59
S'HEAD'
p60
ag13
atp61
Rp62
sasVapi_keys.delete
p63
(lp64
(dp65
g7
V/v1/merchants/:merchant_id/api_keys/:api_key_id
p66
sg9
g10
((lp67
VDELETE
p68
atp69
Rp70
sa(dp71
g7
V/v1/api_keys/:api_key_id
p72
sg9
g10
((lp73
g68
atp74
Rp75
sasVhold_events.index
p76
(lp77
(dp78
g7
V/v1/holds/:hold_id/events
p79
sg9
g10
((lp80
S'HEAD'
p81
ag13
atp82
Rp83
sasVmarketplace_credits.update
p84
(lp85
(dp86
g7
V/v1/marketplaces/:marketplace_id/credits/:credit_id
p87
sg9
g10
((lp88
g43
atp89
Rp90
sasVsettlements.show
p91
(lp92
(dp93
g7
V/v1/settlements/:settlement_id
p94
sg9
g10
((lp95
S'HEAD'
p96
ag13
atp97
Rp98
sasVholds.update
p99
(lp100
(dp101
S'url'
p102
V/v1/marketplaces/:marketplace_id/accounts/:account_id/holds/:hold_id
p103
sS'methods'
p104
g10
((lp105
VPUT
p106
atp107
Rp108
sa(dp109
g102
V/v1/marketplaces/:marketplace_id/holds/:hold_id
p110
sg104
g10
((lp111
g106
atp112
Rp113
sa(dp114
g102
V/v1/marketplaces/:marketplace_id/accounts/:account_id/holds/:hold_id
p115
sg104
g108
sa(dp116
g102
V/v1/marketplaces/:marketplace_id/holds/:hold_id
p117
sg104
g113
sasVholds.create
p118
(lp119
(dp120
g102
V/v1/marketplaces/:marketplace_id/accounts/:account_id/holds
p121
sg104
g10
((lp122
VPOST
p123
atp124
Rp125
sa(dp126
g102
V/v1/marketplaces/:marketplace_id/holds
p127
sg104
g10
((lp128
g123
atp129
Rp130
sasVbank_account_authentications_2.show
p131
(lp132
(dp133
g7
V/v1/bank_accounts/:bank_account_id/authentications/:verification_id
p134
sg9
g10
((lp135
S'HEAD'
p136
ag13
atp137
Rp138
sasVaccount_cards.index
p139
(lp140
(dp141
g7
V/v1/marketplaces/:marketplace_id/accounts/:account_id/cards
p142
sg9
g10
((lp143
S'HEAD'
p144
ag13
atp145
Rp146
sasVaccount_cards.update
p147
(lp148
(dp149
g7
V/v1/marketplaces/:marketplace_id/accounts/:account_id/cards/:card_id
p150
sg9
g10
((lp151
g43
atp152
Rp153
sasVmarketplaces.update
p154
(lp155
(dp156
g7
V/v1/marketplaces/:marketplace_id
p157
sg9
g10
((lp158
g43
atp159
Rp160
sasVholds.show
p161
(lp162
(dp163
g102
V/v1/marketplaces/:marketplace_id/accounts/:account_id/holds/:hold_id
p164
sg104
g10
((lp165
S'HEAD'
p166
aVGET
p167
atp168
Rp169
sa(dp170
g102
V/v1/marketplaces/:marketplace_id/holds/:hold_id
p171
sg104
g10
((lp172
S'HEAD'
p173
ag167
atp174
Rp175
sasVmarketplace_invoice_collection.bank_account_debits
p176
(lp177
(dp178
g7
V/v1/marketplace/:marketplace_id/invoices/:invoice_id/bank_account_debits
p179
sg9
g10
((lp180
VHEAD
p181
aVGET
p182
atp183
Rp184
sasVbank_account_authentications.update_current
p185
(lp186
(dp187
g7
V/v1/bank_accounts/:bank_account_id/verification
p188
sg9
g10
((lp189
VPUT
p190
atp191
Rp192
sasVaccount_credits.create
p193
(lp194
(dp195
g7
V/v1/marketplaces/:marketplace_id/accounts/:account_id/credits
p196
sg9
g10
((lp197
VPOST
p198
atp199
Rp200
sasVmarketplace_invoice_collection.holds
p201
(lp202
(dp203
g7
V/v1/marketplace/:marketplace_id/invoices/:invoice_id/holds
p204
sg9
g10
((lp205
g181
ag182
atp206
Rp207
sasVmarketplace_statistics.show
p208
(lp209
(dp210
g7
V/v1/marketplaces/:marketplace_id/statistics/:query_id
p211
sg9
g10
((lp212
S'HEAD'
p213
ag13
atp214
Rp215
sa(dp216
g7
V/v1/marketplaces/statistics/:query_id
p217
sg9
g10
((lp218
S'HEAD'
p219
ag13
atp220
Rp221
sasVversions.index
p222
(lp223
(dp224
g7
V/
p225
sg9
g10
((lp226
S'HEAD'
p227
aVGET
p228
atp229
Rp230
sasVmarketplace_callbacks.create
p231
(lp232
(dp233
g7
V/v1/marketplaces/:marketplace_id/callbacks
p234
sg9
g10
((lp235
g198
atp236
Rp237
sasVbank_account_credits.index
p238
(lp239
(dp240
g7
V/v1/bank_accounts/:bank_account_id/credits
p241
sg9
g10
((lp242
S'HEAD'
p243
ag13
atp244
Rp245
sasVapi_keys.index
p246
(lp247
(dp248
g7
V/v1/api_keys
p249
sg9
g10
((lp250
S'HEAD'
p251
ag13
atp252
Rp253
sa(dp254
g7
V/v1/merchants/:merchant_id/api_keys
p255
sg9
g10
((lp256
S'HEAD'
p257
ag13
atp258
Rp259
sasVmarketplace_callbacks.delete
p260
(lp261
(dp262
g7
V/v1/marketplaces/:marketplace_id/callbacks/:callback_id
p263
sg9
g10
((lp264
g68
atp265
Rp266
sasVaccount_cards.create
p267
(lp268
(dp269
g7
V/v1/marketplaces/:marketplace_id/accounts/:account_id/cards
p270
sg9
g10
((lp271
g198
atp272
Rp273
sasVdebit_events.index
p274
(lp275
(dp276
g7
V/v1/debits/:debit_id/events
p277
sg9
g10
((lp278
S'HEAD'
p279
ag13
atp280
Rp281
sasVmarketplace_invoices.show
p282
(lp283
(dp284
g7
V/v1/marketplaces/:marketplace_id/invoices/:invoice_id
p285
sg9
g10
((lp286
S'HEAD'
p287
ag13
atp288
Rp289
sasVbank_accounts.create
p290
(lp291
(dp292
g7
V/v1/bank_accounts
p293
sg9
g10
((lp294
g198
atp295
Rp296
sasVevent_callback_logs.show
p297
(lp298
(dp299
g7
V/v1/events/:event_id/callbacks/:callback_id/logs/:log_id
p300
sg9
g10
((lp301
S'HEAD'
p302
ag13
atp303
Rp304
sasVevent_callback_logs.index
p305
(lp306
(dp307
g7
V/v1/events/:event_id/callbacks/:callback_id/logs
p308
sg9
g10
((lp309
S'HEAD'
p310
ag13
atp311
Rp312
sasVevents.index
p313
(lp314
(dp315
g7
V/v1/events
p316
sg9
g10
((lp317
S'HEAD'
p318
ag13
atp319
Rp320
sasVhealth.show
p321
(lp322
(dp323
g7
V/health
p324
sg9
g10
((lp325
g227
aVGET
p326
atp327
Rp328
sasVbank_account_credits.create
p329
(lp330
(dp331
g7
V/v1/bank_accounts/:bank_account_id/credits
p332
sg9
g10
((lp333
g198
atp334
Rp335
sasVaccount_cards.show
p336
(lp337
(dp338
g7
V/v1/marketplaces/:marketplace_id/accounts/:account_id/cards/:card_id
p339
sg9
g10
((lp340
S'HEAD'
p341
ag13
atp342
Rp343
sasVinvoice_settlements.index
p344
(lp345
(dp346
g7
V/v1/invoices/:invoice_id/settlements
p347
sg9
g10
((lp348
S'HEAD'
p349
ag13
atp350
Rp351
sasVbank_accounts.index
p352
(lp353
(dp354
g7
V/v1/bank_accounts
p355
sg9
g10
((lp356
S'HEAD'
p357
ag13
atp358
Rp359
sasVmarketplace_invoices.index
p360
(lp361
(dp362
g7
V/v1/marketplaces/:marketplace_id/invoices
p363
sg9
g10
((lp364
S'HEAD'
p365
ag13
atp366
Rp367
sasVmarketplace_credits.show
p368
(lp369
(dp370
g7
V/v1/marketplaces/:marketplace_id/credits/:credit_id
p371
sg9
g10
((lp372
S'HEAD'
p373
ag13
atp374
Rp375
sasVbank_accounts.show
p376
(lp377
(dp378
g7
V/v1/bank_accounts/:bank_account_id
p379
sg9
g10
((lp380
S'HEAD'
p381
ag13
atp382
Rp383
sasVinvoices.delete
p384
(lp385
(dp386
g7
V/v1/invoices/:invoice_id
p387
sg9
g10
((lp388
g68
atp389
Rp390
sasS'static'
p391
(lp392
(dp393
g7
V/static/:filename_id
p394
sg9
g10
((lp395
g227
aS'OPTIONS'
p396
aS'GET'
p397
atp398
Rp399
sasVbank_account_authentications_2.update_current
p400
(lp401
(dp402
g7
V/v1/bank_accounts/:bank_account_id/verification
p403
sg9
g10
((lp404
g190
atp405
Rp406
sasVrefunds.update
p407
(lp408
(dp409
S'url'
p410
V/v1/marketplaces/:marketplace_id/accounts/:account_id/refunds/:refund_id
p411
sS'methods'
p412
g10
((lp413
VPUT
p414
atp415
Rp416
sa(dp417
g410
V/v1/marketplaces/:marketplace_id/refunds/:refund_id
p418
sg412
g10
((lp419
g414
atp420
Rp421
sasVmarketplaces.create
p422
(lp423
(dp424
g7
V/v1/marketplaces
p425
sg9
g10
((lp426
g198
atp427
Rp428
sasVrefunds.index
p429
(lp430
(dp431
g410
V/v1/marketplaces/:marketplace_id/accounts/:account_id/refunds
p432
sg412
g10
((lp433
S'HEAD'
p434
aVGET
p435
atp436
Rp437
sa(dp438
g410
V/v1/marketplaces/:marketplace_id/refunds
p439
sg412
g10
((lp440
S'HEAD'
p441
ag435
atp442
Rp443
sasVholds.index
p444
(lp445
(dp446
g102
V/v1/marketplaces/:marketplace_id/accounts/:account_id/holds
p447
sg104
g10
((lp448
S'HEAD'
p449
ag167
atp450
Rp451
sa(dp452
g102
V/v1/marketplaces/:marketplace_id/holds
p453
sg104
g10
((lp454
S'HEAD'
p455
ag167
atp456
Rp457
sasVinvoice_collection.credits
p458
(lp459
(dp460
g7
V/v1/invoices/:invoice_id/credits
p461
sg9
g10
((lp462
g51
ag52
atp463
Rp464
sasVrefunds.create
p465
(lp466
(dp467
g410
V/v1/marketplaces/:marketplace_id/accounts/:account_id/refunds
p468
sg412
g10
((lp469
VPOST
p470
atp471
Rp472
sa(dp473
g410
V/v1/marketplaces/:marketplace_id/refunds
p474
sg412
g10
((lp475
g470
atp476
Rp477
sasVmerchant_accounts.index
p478
(lp479
(dp480
g7
V/v1/merchants/:merchant_id/accounts
p481
sg9
g10
((lp482
S'HEAD'
p483
ag13
atp484
Rp485
sasVmarketplaces.index
p486
(lp487
(dp488
g7
V/v1/marketplaces
p489
sg9
g10
((lp490
S'HEAD'
p491
ag13
atp492
Rp493
sasVmerchants.show
p494
(lp495
(dp496
g7
V/v1/merchants/:merchant_id
p497
sg9
g10
((lp498
S'HEAD'
p499
ag13
atp500
Rp501
sasVcredits.create
p502
(lp503
(dp504
g7
V/v1/credits
p505
sg9
g10
((lp506
g198
atp507
Rp508
sasVaccounts.index
p509
(lp510
(dp511
g7
V/v1/marketplaces/:marketplace_id/accounts
p512
sg9
g10
((lp513
S'HEAD'
p514
ag13
atp515
Rp516
sasVdebits.index
p517
(lp518
(dp519
g7
V/v1/marketplaces/:marketplace_id/accounts/:account_id/debits
p520
sg9
g10
((lp521
S'HEAD'
p522
ag13
atp523
Rp524
sa(dp525
g7
V/v1/marketplaces/:marketplace_id/holds/:hold_id/debits
p526
sg9
g10
((lp527
S'HEAD'
p528
ag13
atp529
Rp530
sa(dp531
g7
V/v1/marketplaces/:marketplace_id/debits
p532
sg9
g10
((lp533
S'HEAD'
p534
ag13
atp535
Rp536
sasVmarketplace_bank_accounts.show
p537
(lp538
(dp539
g7
V/v1/marketplaces/:marketplace_id/bank_accounts/:bank_account_id
p540
sg9
g10
((lp541
S'HEAD'
p542
ag13
atp543
Rp544
sasVcredits.show
p545
(lp546
(dp547
g7
V/v1/credits/:credit_id
p548
sg9
g10
((lp549
S'HEAD'
p550
ag13
atp551
Rp552
sasVmarketplace_bank_accounts.create
p553
(lp554
(dp555
g7
V/v1/marketplaces/:marketplace_id/bank_accounts
p556
sg9
g10
((lp557
g198
atp558
Rp559
sasVbank_account_credits.show
p560
(lp561
(dp562
g7
V/v1/bank_accounts/:bank_account_id/credits/:credit_id
p563
sg9
g10
((lp564
S'HEAD'
p565
ag13
atp566
Rp567
sasVaccount_bank_accounts.index
p568
(lp569
(dp570
g7
V/v1/marketplaces/:marketplace_id/accounts/:account_id/bank_accounts
p571
sg9
g10
((lp572
S'HEAD'
p573
ag13
atp574
Rp575
sasVdebits.create
p576
(lp577
(dp578
g7
V/v1/marketplaces/:marketplace_id/accounts/:account_id/debits
p579
sg9
g10
((lp580
g198
atp581
Rp582
sa(dp583
g7
V/v1/marketplaces/:marketplace_id/holds/:hold_id/debits
p584
sg9
g10
((lp585
g198
atp586
Rp587
sa(dp588
g7
V/v1/marketplaces/:marketplace_id/debits
p589
sg9
g10
((lp590
g198
atp591
Rp592
sasVinvoice_settlements.create
p593
(lp594
(dp595
g7
V/v1/invoices/:invoice_id/settlements
p596
sg9
g10
((lp597
g198
atp598
Rp599
sasVevent_callbacks.index
p600
(lp601
(dp602
g7
V/v1/events/:event_id/callbacks
p603
sg9
g10
((lp604
S'HEAD'
p605
ag13
atp606
Rp607
sasVevents.show
p608
(lp609
(dp610
g7
V/v1/events/:event_id
p611
sg9
g10
((lp612
S'HEAD'
p613
ag13
atp614
Rp615
sasVaccount_bank_accounts.show
p616
(lp617
(dp618
g7
V/v1/marketplaces/:marketplace_id/accounts/:account_id/bank_accounts/:bank_account_id
p619
sg9
g10
((lp620
S'HEAD'
p621
ag13
atp622
Rp623
sasVbank_account_authentications_2.show_current
p624
(lp625
(dp626
g7
V/v1/bank_accounts/:bank_account_id/verification
p627
sg9
g10
((lp628
VHEAD
p629
aVGET
p630
atp631
Rp632
sasVdebit_refunds.show
p633
(lp634
(dp635
g7
V/v1/marketplaces/:marketplace_id/debits/:debit_id/refunds/:refund_id
p636
sg9
g10
((lp637
S'HEAD'
p638
ag13
atp639
Rp640
sasVrefund_events.index
p641
(lp642
(dp643
g7
V/v1/refunds/:refund_id/events
p644
sg9
g10
((lp645
S'HEAD'
p646
ag13
atp647
Rp648
sasVinvoice_collection.lost_debit_chargebacks
p649
(lp650
(dp651
g7
V/v1/invoices/:invoice_id/lost_debit_chargebacks
p652
sg9
g10
((lp653
g51
ag52
atp654
Rp655
sasVmarketplace_cards.create
p656
(lp657
(dp658
g7
V/v1/marketplaces/:marketplace_id/cards
p659
sg9
g10
((lp660
g198
atp661
Rp662
sasVapi_keys.update
p663
(lp664
(dp665
g7
V/v1/merchants/:merchant_id/api_keys/:api_key_id
p666
sg9
g10
((lp667
g43
atp668
Rp669
sa(dp670
g7
V/v1/api_keys/:api_key_id
p671
sg9
g10
((lp672
g43
atp673
Rp674
sasVsettlement_events.index
p675
(lp676
(dp677
g7
V/v1/settlements/:settlement_id/events
p678
sg9
g10
((lp679
S'HEAD'
p680
ag13
atp681
Rp682
sasVmarketplace_invoice_collection.debits
p683
(lp684
(dp685
g7
V/v1/marketplace/:marketplace_id/invoices/:invoice_id/debits
p686
sg9
g10
((lp687
g181
ag182
atp688
Rp689
sasVversions.show
p690
(lp691
(dp692
g7
V/v:version_id
p693
sg9
g10
((lp694
g227
ag228
atp695
Rp696
sasVdebit_refunds.index
p697
(lp698
(dp699
g7
V/v1/marketplaces/:marketplace_id/debits/:debit_id/refunds
p700
sg9
g10
((lp701
S'HEAD'
p702
ag13
atp703
Rp704
sasVdebit_refunds.create
p705
(lp706
(dp707
g7
V/v1/marketplaces/:marketplace_id/debits/:debit_id/refunds
p708
sg9
g10
((lp709
g198
atp710
Rp711
sasVmarketplace_invoice_collection.refunds
p712
(lp713
(dp714
g7
V/v1/marketplace/:marketplace_id/invoices/:invoice_id/refunds
p715
sg9
g10
((lp716
g181
ag182
atp717
Rp718
sasVaccount_transactions.index
p719
(lp720
(dp721
g7
V/v1/marketplaces/:marketplace_id/accounts/:account_id/transactions
p722
sg9
g10
((lp723
S'HEAD'
p724
ag13
atp725
Rp726
sasVcredits.index
p727
(lp728
(dp729
g7
V/v1/credits
p730
sg9
g10
((lp731
S'HEAD'
p732
ag13
atp733
Rp734
sasVmarketplace_invoices.update
p735
(lp736
(dp737
g7
V/v1/marketplaces/:marketplace_id/invoices/:invoice_id
p738
sg9
g10
((lp739
g43
atp740
Rp741
sasVinvoice_collection.holds
p742
(lp743
(dp744
g7
V/v1/invoices/:invoice_id/holds
p745
sg9
g10
((lp746
g51
ag52
atp747
Rp748
sasVinvoice_collection.card_debits
p749
(lp750
(dp751
g7
V/v1/invoices/:invoice_id/card_debits
p752
sg9
g10
((lp753
g51
ag52
atp754
Rp755
sasVbank_account_authentications.index
p756
(lp757
(dp758
S'url'
p759
V/v1/bank_accounts/:bank_account_id/verifications
p760
sS'methods'
p761
g10
((lp762
S'HEAD'
p763
aVGET
p764
atp765
Rp766
sasVevent_callbacks.show
p767
(lp768
(dp769
g7
V/v1/events/:event_id/callbacks/:callback_id
p770
sg9
g10
((lp771
S'HEAD'
p772
ag13
atp773
Rp774
sasVbank_account_authentications_2.update
p775
(lp776
(dp777
g7
V/v1/bank_accounts/:bank_account_id/authentications/:verification_id
p778
sg9
g10
((lp779
g43
atp780
Rp781
sasVmarketplace_invoice_collection.credits
p782
(lp783
(dp784
g7
V/v1/marketplace/:marketplace_id/invoices/:invoice_id/credits
p785
sg9
g10
((lp786
g181
ag182
atp787
Rp788
sasVinvoices.show
p789
(lp790
(dp791
g7
V/v1/invoices/:invoice_id
p792
sg9
g10
((lp793
S'HEAD'
p794
ag13
atp795
Rp796
sasVbank_account_authentications.create
p797
(lp798
(dp799
g759
V/v1/bank_accounts/:bank_account_id/verifications
p800
sg761
g10
((lp801
VPOST
p802
atp803
Rp804
sasVinvoices.index
p805
(lp806
(dp807
g7
V/v1/invoices
p808
sg9
g10
((lp809
S'HEAD'
p810
ag13
atp811
Rp812
sasVchargebacks.show
p813
(lp814
(dp815
g7
V/v1/chargebacks/:chargeback_id
p816
sg9
g10
((lp817
S'HEAD'
p818
ag13
atp819
Rp820
sasVaccount_search.index
p821
(lp822
(dp823
g7
V/v1/accounts/:account_id/search
p824
sg9
g10
((lp825
S'HEAD'
p826
ag13
atp827
Rp828
sasVmarketplace_bank_accounts.index
p829
(lp830
(dp831
g7
V/v1/marketplaces/:marketplace_id/bank_accounts
p832
sg9
g10
((lp833
S'HEAD'
p834
ag13
atp835
Rp836
sasVmarketplace_bank_accounts.update
p837
(lp838
(dp839
g7
V/v1/marketplaces/:marketplace_id/bank_accounts/:bank_account_id
p840
sg9
g10
((lp841
g43
atp842
Rp843
sasVmerchants.update
p844
(lp845
(dp846
g7
V/v1/merchants/:merchant_id
p847
sg9
g10
((lp848
g43
atp849
Rp850
sasVmarketplace_callbacks.index
p851
(lp852
(dp853
g7
V/v1/marketplaces/:marketplace_id/callbacks
p854
sg9
g10
((lp855
S'HEAD'
p856
ag13
atp857
Rp858
sasVinvoice_collection.debits
p859
(lp860
(dp861
g7
V/v1/invoices/:invoice_id/debits
p862
sg9
g10
((lp863
g51
ag52
atp864
Rp865
sasVmarketplace_credits.index
p866
(lp867
(dp868
g7
V/v1/marketplaces/:marketplace_id/credits
p869
sg9
g10
((lp870
S'HEAD'
p871
ag13
atp872
Rp873
sasVsearch.index
p874
(lp875
(dp876
g7
V/v1/search
p877
sg9
g10
((lp878
S'HEAD'
p879
ag13
atp880
Rp881
sasVbank_account_authentications_2.create
p882
(lp883
(dp884
g7
V/v1/bank_accounts/:bank_account_id/authentications
p885
sg9
g10
((lp886
g198
atp887
Rp888
sasVdebits.update
p889
(lp890
(dp891
g7
V/v1/marketplaces/:marketplace_id/accounts/:account_id/debits/:debit_id
p892
sg9
g10
((lp893
g43
atp894
Rp895
sa(dp896
g7
V/v1/marketplaces/:marketplace_id/holds/:hold_id/debits/:debit_id
p897
sg9
g10
((lp898
g43
atp899
Rp900
sa(dp901
g7
V/v1/marketplaces/:marketplace_id/debits/:debit_id
p902
sg9
g10
((lp903
g43
atp904
Rp905
sasVmarketplaces.show
p906
(lp907
(dp908
g7
V/v1/marketplaces/:marketplace_id
p909
sg9
g10
((lp910
S'HEAD'
p911
ag13
atp912
Rp913
sasVaccounts.create
p914
(lp915
(dp916
g7
V/v1/marketplaces/:marketplace_id/accounts
p917
sg9
g10
((lp918
g198
atp919
Rp920
sasVmarketplace_search.index
p921
(lp922
(dp923
g7
V/v1/marketplaces/:marketplace_id/search
p924
sg9
g10
((lp925
S'HEAD'
p926
ag13
atp927
Rp928
sasVapi_keys.create
p929
(lp930
(dp931
g7
V/v1/api_keys
p932
sg9
g10
((lp933
g198
atp934
Rp935
sa(dp936
g7
V/v1/merchants/:merchant_id/api_keys
p937
sg9
g10
((lp938
g198
atp939
Rp940
sasVcard_transactions.index
p941
(lp942
(dp943
g7
V/v1/cards/:card_id/cards
p944
sg9
g10
((lp945
S'HEAD'
p946
ag13
atp947
Rp948
sasVinvoices.update
p949
(lp950
(dp951
g7
V/v1/invoices/:invoice_id
p952
sg9
g10
((lp953
g43
atp954
Rp955
sasVchargebacks.index
p956
(lp957
(dp958
g7
V/v1/chargebacks
p959
sg9
g10
((lp960
S'HEAD'
p961
ag13
atp962
Rp963
sasVtransactions.index
p964
(lp965
(dp966
S'url'
p967
V/v1/marketplaces/:marketplace_id/transactions
p968
sS'methods'
p969
g10
((lp970
S'HEAD'
p971
aVGET
p972
atp973
Rp974
sasVbank_account_authentications.update
p975
(lp976
(dp977
g759
V/v1/bank_accounts/:bank_account_id/verifications/:verification_id
p978
sg761
g10
((lp979
VPUT
p980
atp981
Rp982
sasVmerchant_statistics.show
p983
(lp984
(dp985
g7
V/v1/merchants/statistics/:query_id
p986
sg9
g10
((lp987
S'HEAD'
p988
ag13
atp989
Rp990
sasVevent_callbacks.update
p991
(lp992
(dp993
g7
V/v1/events/:event_id/callbacks/:callback_id
p994
sg9
g10
((lp995
g43
atp996
Rp997
sasVinvoice_collection.refunds
p998
(lp999
(dp1000
g7
V/v1/invoices/:invoice_id/refunds
p1001
sg9
g10
((lp1002
g51
ag52
atp1003
Rp1004
sasVbank_accounts.delete
p1005
(lp1006
(dp1007
g7
V/v1/bank_accounts/:bank_account_id
p1008
sg9
g10
((lp1009
g68
atp1010
Rp1011
sasVmarketplace_invoices.create
p1012
(lp1013
(dp1014
g7
V/v1/marketplaces/:marketplace_id/invoices
p1015
sg9
g10
((lp1016
g198
atp1017
Rp1018
sasVbank_account_authentications.show_current
p1019
(lp1020
(dp1021
g7
V/v1/bank_accounts/:bank_account_id/verification
p1022
sg9
g10
((lp1023
g629
ag630
atp1024
Rp1025
sasVmarketplace_callbacks.show
p1026
(lp1027
(dp1028
g7
V/v1/marketplaces/:marketplace_id/callbacks/:callback_id
p1029
sg9
g10
((lp1030
S'HEAD'
p1031
ag13
atp1032
Rp1033
sasVaccount_credits.index
p1034
(lp1035
(dp1036
g7
V/v1/marketplaces/:marketplace_id/accounts/:account_id/credits
p1037
sg9
g10
((lp1038
S'HEAD'
p1039
ag13
atp1040
Rp1041
sasVboom.show
p1042
(lp1043
(dp1044
g7
V/boom
p1045
sg9
g10
((lp1046
g227
aVGET
p1047
atp1048
Rp1049
sasVaccount_bank_accounts.update
p1050
(lp1051
(dp1052
g7
V/v1/marketplaces/:marketplace_id/accounts/:account_id/bank_accounts/:bank_account_id
p1053
sg9
g10
((lp1054
g43
atp1055
Rp1056
sasVaccount_bank_accounts.create
p1057
(lp1058
(dp1059
g7
V/v1/marketplaces/:marketplace_id/accounts/:account_id/bank_accounts
p1060
sg9
g10
((lp1061
g198
atp1062
Rp1063
sasVmerchants.index
p1064
(lp1065
(dp1066
g7
V/v1/merchants
p1067
sg9
g10
((lp1068
S'HEAD'
p1069
ag13
atp1070
Rp1071
sasVdebit_refunds.update
p1072
(lp1073
(dp1074
g7
V/v1/marketplaces/:marketplace_id/debits/:debit_id/refunds/:refund_id
p1075
sg9
g10
((lp1076
g43
atp1077
Rp1078
sasVbank_account_authentications.show
p1079
(lp1080
(dp1081
g759
V/v1/bank_accounts/:bank_account_id/verifications/:verification_id
p1082
sg761
g10
((lp1083
S'HEAD'
p1084
ag764
atp1085
Rp1086
sasVrefunds.show
p1087
(lp1088
(dp1089
g410
V/v1/marketplaces/:marketplace_id/accounts/:account_id/refunds/:refund_id
p1090
sg412
g10
((lp1091
S'HEAD'
p1092
ag435
atp1093
Rp1094
sa(dp1095
g410
V/v1/marketplaces/:marketplace_id/refunds/:refund_id
p1096
sg412
g10
((lp1097
S'HEAD'
p1098
ag435
atp1099
Rp1100
sasVmarketplace_invoice_collection.lost_debit_chargebacks
p1101
(lp1102
(dp1103
g7
V/v1/marketplace/:marketplace_id/invoices/:invoice_id/lost_debit_chargebacks
p1104
sg9
g10
((lp1105
g181
ag182
atp1106
Rp1107
sasVmarketplace_cards.update
p1108
(lp1109
(dp1110
g7
V/v1/marketplaces/:marketplace_id/cards/:card_id
p1111
sg9
g10
((lp1112
g43
atp1113
Rp1114
sasVsettlements.index
p1115
(lp1116
(dp1117
g7
V/v1/settlements
p1118
sg9
g10
((lp1119
S'HEAD'
p1120
ag13
atp1121
Rp1122
sasVaccount_credits.update
p1123
(lp1124
(dp1125
g7
V/v1/marketplaces/:marketplace_id/accounts/:account_id/credits/:credit_id
p1126
sg9
g10
((lp1127
g43
atp1128
Rp1129
sasVaccounts.update
p1130
(lp1131
(dp1132
g7
V/v1/marketplaces/:marketplace_id/accounts/:account_id
p1133
sg9
g10
((lp1134
g43
atp1135
Rp1136
sasVapi_keys.show
p1137
(lp1138
(dp1139
g7
V/v1/merchants/:merchant_id/api_keys/:api_key_id
p1140
sg9
g10
((lp1141
S'HEAD'
p1142
ag13
atp1143
Rp1144
sa(dp1145
g7
V/v1/api_keys/:api_key_id
p1146
sg9
g10
((lp1147
S'HEAD'
p1148
ag13
atp1149
Rp1150
sasVaccount_bank_accounts.delete
p1151
(lp1152
(dp1153
g7
V/v1/marketplaces/:marketplace_id/accounts/:account_id/bank_accounts/:bank_account_id
p1154
sg9
g10
((lp1155
g68
atp1156
Rp1157
sasVinvoice_collection.failed_credits
p1158
(lp1159
(dp1160
g7
V/v1/invoices/:invoice_id/failed_credits
p1161
sg9
g10
((lp1162
g51
ag52
atp1163
Rp1164
sasVcredit_events.index
p1165
(lp1166
(dp1167
g7
V/v1/credits/:credit_id/events
p1168
sg9
g10
((lp1169
S'HEAD'
p1170
ag13
atp1171
Rp1172
sasVmarketplace_events.index
p1173
(lp1174
(dp1175
g7
V/v1/marketplaces/:marketplace_id/events
p1176
sg9
g10
((lp1177
S'HEAD'
p1178
ag13
atp1179
Rp1180
sasVmarketplace_credits.create
p1181
(lp1182
(dp1183
g7
V/v1/marketplaces/:marketplace_id/credits
p1184
sg9
g10
((lp1185
g198
atp1186
Rp1187
sasVmarketplace_invoice_collection.card_debits
p1188
(lp1189
(dp1190
g7
V/v1/marketplace/:marketplace_id/invoices/:invoice_id/card_debits
p1191
sg9
g10
((lp1192
g181
ag182
atp1193
Rp1194
sasVdebits.show
p1195
(lp1196
(dp1197
g7
V/v1/marketplaces/:marketplace_id/accounts/:account_id/debits/:debit_id
p1198
sg9
g10
((lp1199
S'HEAD'
p1200
ag13
atp1201
Rp1202
sa(dp1203
g7
V/v1/marketplaces/:marketplace_id/holds/:hold_id/debits/:debit_id
p1204
sg9
g10
((lp1205
S'HEAD'
p1206
ag13
atp1207
Rp1208
sa(dp1209
g7
V/v1/marketplaces/:marketplace_id/debits/:debit_id
p1210
sg9
g10
((lp1211
S'HEAD'
p1212
ag13
atp1213
Rp1214
sasVmarketplace_invoice_collection.failed_credits
p1215
(lp1216
(dp1217
g7
V/v1/marketplace/:marketplace_id/invoices/:invoice_id/failed_credits
p1218
sg9
g10
((lp1219
g181
ag182
atp1220
Rp1221
sasVmarketplace_cards.index
p1222
(lp1223
(dp1224
g7
V/v1/marketplaces/:marketplace_id/cards
p1225
sg9
g10
((lp1226
S'HEAD'
p1227
ag13
atp1228
Rp1229
sasVtransaction_statistics.show
p1230
(lp1231
(dp1232
g7
V/v1/transactions/statistics/:query_id
p1233
sg9
g10
((lp1234
S'HEAD'
p1235
ag13
atp1236
Rp1237
sasVbank_account_authentications_2.index
p1238
(lp1239
(dp1240
g7
V/v1/bank_accounts/:bank_account_id/authentications
p1241
sg9
g10
((lp1242
S'HEAD'
p1243
ag13
atp1244
Rp1245
sas.